 modbus

 Timestamp is 530e57ae (Wed Feb 26 18:07:58 2014)

 Preferred load address is 10000000

 Start         Length     Name                   Class
 0001:00000000 0004e91cH .text                   CODE
 0001:0004e920 00000133H .text$x                 CODE
 0002:00000000 000001d0H .idata$5                DATA
 0002:000001d0 00000004H .CRT$XCA                DATA
 0002:000001d4 00000004H .CRT$XCZ                DATA
 0002:000001d8 00000004H .CRT$XIA                DATA
 0002:000001dc 00000010H .CRT$XIC                DATA
 0002:000001ec 00000004H .CRT$XIZ                DATA
 0002:000001f0 00000004H .CRT$XPA                DATA
 0002:000001f4 00000008H .CRT$XPX                DATA
 0002:000001fc 00000004H .CRT$XPXA               DATA
 0002:00000200 00000004H .CRT$XPZ                DATA
 0002:00000204 00000004H .CRT$XTA                DATA
 0002:00000208 00000004H .CRT$XTZ                DATA
 0002:00000210 0000e1f8H .rdata                  DATA
 0002:0000e408 00000058H .rdata$debug            DATA
 0002:0000e460 00000388H .rdata$r                DATA
 0002:0000e7f0 00000030H .rdata$sxdata           DATA
 0002:0000e820 00000004H .rtc$IAA                DATA
 0002:0000e824 00000010H .rtc$IMZ                DATA
 0002:0000e834 00000004H .rtc$IZZ                DATA
 0002:0000e838 00000004H .rtc$TAA                DATA
 0002:0000e83c 00000010H .rtc$TMZ                DATA
 0002:0000e84c 00000004H .rtc$TZZ                DATA
 0002:0000e850 00000b64H .xdata$x                DATA
 0002:0000f3b4 00000028H .idata$2                DATA
 0002:0000f3dc 00000014H .idata$3                DATA
 0002:0000f3f0 000001d0H .idata$4                DATA
 0002:0000f5c0 000006ecH .idata$6                DATA
 0002:0000fcb0 00000658H .edata                  DATA
 0003:00000000 00002100H .data                   DATA
 0003:00002100 00002300H .bss                    DATA
 0004:00000000 000000a0H .rsrc$01                DATA
 0004:000000a0 000003f0H .rsrc$02                DATA

  Address         Publics by Value              Rva+Base       Lib:Object

 0000:00000000       __except_list              00000000     <absolute>
 0000:0000000c       ___safe_se_handler_count   0000000c     <absolute>
 0000:00000000       ___ImageBase               10000000     <linker-defined>
 0001:00000000       _modbus_set_bits_from_byte 10001000 f   modbus-data.obj
 0001:00000060       _modbus_set_bits_from_bytes 10001060 f   modbus-data.obj
 0001:000000f0       _modbus_get_byte_from_bits 100010f0 f   modbus-data.obj
 0001:00000160       _modbus_get_float          10001160 f   modbus-data.obj
 0001:000001a0       _modbus_get_float_dcba     100011a0 f   modbus-data.obj
 0001:000001e0       _modbus_set_float          100011e0 f   modbus-data.obj
 0001:00000220       _modbus_set_float_dcba     10001220 f   modbus-data.obj
 0001:00000260       _modbus_new_rtu            10001260 f   modbus-rtu.obj
 0001:000003f0       _modbus_rtu_set_serial_mode 100013f0 f   modbus-rtu.obj
 0001:00000460       _modbus_rtu_get_serial_mode 10001460 f   modbus-rtu.obj
 0001:000004d0       _modbus_rtu_set_rts        100014d0 f   modbus-rtu.obj
 0001:00000540       _modbus_rtu_get_rts        10001540 f   modbus-rtu.obj
 0001:00001240       _modbus_new_tcp            10002240 f   modbus-tcp.obj
 0001:00001360       _modbus_tcp_listen         10002360 f   modbus-tcp.obj
 0001:000014b0       _modbus_tcp_accept         100024b0 f   modbus-tcp.obj
 0001:00001550       _modbus_new_tcp_pi         10002550 f   modbus-tcp.obj
 0001:00001780       _modbus_tcp_pi_listen      10002780 f   modbus-tcp.obj
 0001:00001a20       _modbus_tcp_pi_accept      10002a20 f   modbus-tcp.obj
 0001:00002700       _gai_strerrorA             10003700 f i modbus-tcp.obj
 0001:00002750       _modbus_set_slave          10003750 f   modbus.obj
 0001:00002790       _modbus_set_error_recovery 10003790 f   modbus.obj
 0001:000027c0       _modbus_set_socket         100037c0 f   modbus.obj
 0001:000027f0       _modbus_get_socket         100037f0 f   modbus.obj
 0001:00002820       _modbus_get_response_timeout 10003820 f   modbus.obj
 0001:00002860       _modbus_set_response_timeout 10003860 f   modbus.obj
 0001:000028b0       _modbus_get_byte_timeout   100038b0 f   modbus.obj
 0001:000028f0       _modbus_set_byte_timeout   100038f0 f   modbus.obj
 0001:00002930       _modbus_get_header_length  10003930 f   modbus.obj
 0001:00002960       _modbus_connect            10003960 f   modbus.obj
 0001:00002990       _modbus_close              10003990 f   modbus.obj
 0001:000029b0       _modbus_free               100039b0 f   modbus.obj
 0001:000029d0       _modbus_flush              100039d0 f   modbus.obj
 0001:00002a30       _modbus_set_debug          10003a30 f   modbus.obj
 0001:00002a60       _modbus_strerror           10003a60 f   modbus.obj
 0001:00002b50       _modbus_read_bits          10003b50 f   modbus.obj
 0001:00002bf0       _modbus_read_input_bits    10003bf0 f   modbus.obj
 0001:00002c90       _modbus_read_registers     10003c90 f   modbus.obj
 0001:00002d10       _modbus_read_input_registers 10003d10 f   modbus.obj
 0001:00002d90       _modbus_write_bit          10003d90 f   modbus.obj
 0001:00002de0       _modbus_write_register     10003de0 f   modbus.obj
 0001:00002e20       _modbus_write_bits         10003e20 f   modbus.obj
 0001:00003130       _modbus_write_registers    10004130 f   modbus.obj
 0001:00003310       _modbus_mask_write_register 10004310 f   modbus.obj
 0001:00003470       _modbus_write_and_read_registers 10004470 f   modbus.obj
 0001:000037b0       _modbus_report_slave_id    100047b0 f   modbus.obj
 0001:00003920       _modbus_mapping_new        10004920 f   modbus.obj
 0001:00003b20       _modbus_mapping_free       10004b20 f   modbus.obj
 0001:00003b80       _modbus_send_raw_request   10004b80 f   modbus.obj
 0001:00003c80       _modbus_receive            10004c80 f   modbus.obj
 0001:00003cc0       _modbus_receive_confirmation 10004cc0 f   modbus.obj
 0001:00003cf0       _modbus_reply              10004cf0 f   modbus.obj
 0001:00005140       _modbus_reply_exception    10006140 f   modbus.obj
 0001:00005270       __modbus_init_common       10006270 f   modbus.obj
 0001:000052d0       __error_print              100062d0 f   modbus.obj
 0001:00005350       __modbus_receive_msg       10006350 f   modbus.obj
 0001:000057d0       _strlcpy                   100067d0 f   modbus.obj
 0001:000065fc       _accept@12                 100075fc f   ws2_32:WS2_32.dll
 0001:00006602       _bind@12                   10007602 f   ws2_32:WS2_32.dll
 0001:00006608       _closesocket@4             10007608 f   ws2_32:WS2_32.dll
 0001:0000660e       _connect@12                1000760e f   ws2_32:WS2_32.dll
 0001:00006614       _ioctlsocket@12            10007614 f   ws2_32:WS2_32.dll
 0001:0000661a       _getsockopt@20             1000761a f   ws2_32:WS2_32.dll
 0001:00006620       _htonl@4                   10007620 f   ws2_32:WS2_32.dll
 0001:00006626       _htons@4                   10007626 f   ws2_32:WS2_32.dll
 0001:0000662c       _inet_addr@4               1000762c f   ws2_32:WS2_32.dll
 0001:00006632       _inet_ntoa@4               10007632 f   ws2_32:WS2_32.dll
 0001:00006638       _listen@8                  10007638 f   ws2_32:WS2_32.dll
 0001:0000663e       _recv@16                   1000763e f   ws2_32:WS2_32.dll
 0001:00006644       _select@20                 10007644 f   ws2_32:WS2_32.dll
 0001:0000664a       _send@16                   1000764a f   ws2_32:WS2_32.dll
 0001:00006650       _setsockopt@20             10007650 f   ws2_32:WS2_32.dll
 0001:00006656       _shutdown@8                10007656 f   ws2_32:WS2_32.dll
 0001:0000665c       _socket@12                 1000765c f   ws2_32:WS2_32.dll
 0001:00006662       _WSAStartup@8              10007662 f   ws2_32:WS2_32.dll
 0001:00006668       _WSAGetLastError@0         10007668 f   ws2_32:WS2_32.dll
 0001:0000666e       _getaddrinfo@16            1000766e f   ws2_32:WS2_32.dll
 0001:00006674       _freeaddrinfo@4            10007674 f   ws2_32:WS2_32.dll
 0001:0000667a       _CreateFileA@28            1000767a f   kernel32:KERNEL32.dll
 0001:00006680       _ReadFile@20               10007680 f   kernel32:KERNEL32.dll
 0001:00006686       _WriteFile@20              10007686 f   kernel32:KERNEL32.dll
 0001:0000668c       _CloseHandle@4             1000768c f   kernel32:KERNEL32.dll
 0001:00006692       _GetLastError@0            10007692 f   kernel32:KERNEL32.dll
 0001:00006698       _GetCommState@8            10007698 f   kernel32:KERNEL32.dll
 0001:0000669e       _PurgeComm@8               1000769e f   kernel32:KERNEL32.dll
 0001:000066a4       _SetCommState@8            100076a4 f   kernel32:KERNEL32.dll
 0001:000066aa       _SetCommTimeouts@8         100076aa f   kernel32:KERNEL32.dll
 0001:000066b0       _FormatMessageA@28         100076b0 f   kernel32:KERNEL32.dll
 0001:000066b6       _Sleep@4                   100076b6 f   kernel32:KERNEL32.dll
 0001:000066c0       __invoke_watson_if_error   100076c0 f i LIBCMTD:wassert.obj
 0001:000066f0       __wassert                  100076f0 f   LIBCMTD:wassert.obj
 0001:00007330       __RTC_InitBase             10008330 f   LIBCMTD:init.obj
 0001:00007360       __RTC_Shutdown             10008360 f   LIBCMTD:init.obj
 0001:00007380       __fpmath                   10008380 f   LIBCMTD:fpinit.obj
 0001:000073a0       ___setfflag                100083a0 f   LIBCMTD:fpinit.obj
 0001:000073c0       __cfltcvt_init             100083c0 f   LIBCMTD:fpinit.obj
 0001:00007480       ___initstdio               10008480 f   LIBCMTD:_file.obj
 0001:00007550       ___endstdio                10008550 f   LIBCMTD:_file.obj
 0001:00007590       ___iob_func                10008590 f   LIBCMTD:_file.obj
 0001:000075a0       __lock_file                100085a0 f   LIBCMTD:_file.obj
 0001:00007600       __lock_file2               10008600 f   LIBCMTD:_file.obj
 0001:00007640       __unlock_file              10008640 f   LIBCMTD:_file.obj
 0001:000076a0       __unlock_file2             100086a0 f   LIBCMTD:_file.obj
 0001:000076e0       __fprintf_l                100086e0 f   LIBCMTD:fprintf.obj
 0001:00007710       __fprintf_p                10008710 f   LIBCMTD:fprintf.obj
 0001:00007740       __fprintf_p_l              10008740 f   LIBCMTD:fprintf.obj
 0001:00007770       __fprintf_s_l              10008770 f   LIBCMTD:fprintf.obj
 0001:000077a0       _fprintf                   100087a0 f   LIBCMTD:fprintf.obj
 0001:00007a80       _fprintf_s                 10008a80 f   LIBCMTD:fprintf.obj
 0001:00007ab0       __get_printf_count_output  10008ab0 f   LIBCMTD:printf.obj
 0001:00007ae0       __printf_l                 10008ae0 f   LIBCMTD:printf.obj
 0001:00007b10       __printf_p                 10008b10 f   LIBCMTD:printf.obj
 0001:00007b30       __printf_p_l               10008b30 f   LIBCMTD:printf.obj
 0001:00007b60       __printf_s_l               10008b60 f   LIBCMTD:printf.obj
 0001:00007b90       __set_printf_count_output  10008b90 f   LIBCMTD:printf.obj
 0001:00007bf0       _printf                    10008bf0 f   LIBCMTD:printf.obj
 0001:00007d60       _printf_s                  10008d60 f   LIBCMTD:printf.obj
 0001:00007d80       ___doserrno                10008d80 f   LIBCMTD:dosmap.obj
 0001:00007db0       __dosmaperr                10008db0 f   LIBCMTD:dosmap.obj
 0001:00007de0       __errno                    10008de0 f   LIBCMTD:dosmap.obj
 0001:00007e10       __get_doserrno             10008e10 f   LIBCMTD:dosmap.obj
 0001:00007ea0       __get_errno                10008ea0 f   LIBCMTD:dosmap.obj
 0001:00007f30       __get_errno_from_oserr     10008f30 f   LIBCMTD:dosmap.obj
 0001:00007fb0       __set_doserrno             10008fb0 f   LIBCMTD:dosmap.obj
 0001:00007fe0       __set_errno                10008fe0 f   LIBCMTD:dosmap.obj
 0001:00008010       _free                      10009010 f   LIBCMTD:dbgfree.obj
 0001:00008030       _malloc                    10009030 f   LIBCMTD:dbgmalloc.obj
 0001:00008060       @__security_check_cookie@4 10009060 f   LIBCMTD:secchk.obj
 0001:00008070       _memcpy                    10009070 f   LIBCMTD:memcpy.obj
 0001:000086c0       _memset                    100096c0 f   LIBCMTD:memset.obj
 0001:00008750       __get_sys_err_msg          10009750 f i LIBCMTD:perror.obj
 0001:00008790       _perror                    10009790 f   LIBCMTD:perror.obj
 0001:000089f0       ?_RTC_AllocaFailure@@YAXPAXPAU_RTC_ALLOCA_NODE@@H@Z 100099f0 f   LIBCMTD:error.obj
 0001:00008b60       ?_RTC_Failure@@YAXPAXH@Z   10009b60 f   LIBCMTD:error.obj
 0001:00008bb0       ?_RTC_StackFailure@@YAXPAXPBD@Z 10009bb0 f   LIBCMTD:error.obj
 0001:00008f10       __RTC_UninitUse            10009f10 f   LIBCMTD:error.obj
 0001:00009010       ___raise_securityfailure   1000a010 f   LIBCMTD:gs_report.obj
 0001:00009060       ___report_gsfailure        1000a060 f   LIBCMTD:gs_report.obj
 0001:00009170       ___report_rangecheckfailure 1000a170 f   LIBCMTD:gs_report.obj
 0001:00009180       ___report_securityfailure  1000a180 f   LIBCMTD:gs_report.obj
 0001:00009260       ___report_securityfailureEx 1000a260 f   LIBCMTD:gs_report.obj
 0001:00009390       _strerror                  1000a390 f   LIBCMTD:strerror.obj
 0001:00009440       _strerror_s                1000a440 f   LIBCMTD:strerror.obj
 0001:00009590       __CRT_INIT@12              1000a590 f   LIBCMTD:dllcrt0.obj
 0001:000097a0       __DllMainCRTStartup@12     1000a7a0 f   LIBCMTD:dllcrt0.obj
 0001:00009990       ___DllXcptFilter           1000a990 f   LIBCMTD:dllcrt0.obj
 0001:000099c0       ?_invalid_parameter@@YAXPBG00II@Z 1000a9c0 f   LIBCMTD:invarg.obj
 0001:000099f0       ?_invoke_watson@@YAXPBG00II@Z 1000a9f0 f   LIBCMTD:invarg.obj
 0001:00009a10       __call_reportfault         1000aa10 f   LIBCMTD:invarg.obj
 0001:00009b70       __get_invalid_parameter_handler 1000ab70 f   LIBCMTD:invarg.obj
 0001:00009ba0       __initp_misc_invarg        1000aba0 f   LIBCMTD:invarg.obj
 0001:00009bb0       __invalid_parameter        1000abb0 f   LIBCMTD:invarg.obj
 0001:00009c10       __invoke_watson            1000ac10 f   LIBCMTD:invarg.obj
 0001:00009c50       __set_invalid_parameter_handler 1000ac50 f   LIBCMTD:invarg.obj
 0001:00009c90       _memcpy_s                  1000ac90 f   LIBCMTD:memcpy_s.obj
 0001:00009e60       _wcscat_s                  1000ae60 f   LIBCMTD:wcscat_s.obj
 0001:0000a270       _wcscpy_s                  1000b270 f   LIBCMTD:wcscpy_s.obj
 0001:0000a580       _wcslen                    1000b580 f   LIBCMTD:wcslen.obj
 0001:0000a5c0       _wcsncat_s                 1000b5c0 f   LIBCMTD:wcsncat_s.obj
 0001:0000aab0       ___copy_path_to_wide_string 1000bab0 f   LIBCMTD:crt0dat.obj
 0001:0000aca0       ___crtCorExitProcess       1000bca0 f   LIBCMTD:crt0dat.obj
 0001:0000ace0       ___crtExitProcess          1000bce0 f   LIBCMTD:crt0dat.obj
 0001:0000ad00       ___freeCrtMemory           1000bd00 f   LIBCMTD:crt0dat.obj
 0001:0000aec0       __amsg_exit                1000bec0 f   LIBCMTD:crt0dat.obj
 0001:0000aee0       __c_exit                   1000bee0 f   LIBCMTD:crt0dat.obj
 0001:0000af00       __cexit                    1000bf00 f   LIBCMTD:crt0dat.obj
 0001:0000af20       __cinit                    1000bf20 f   LIBCMTD:crt0dat.obj
 0001:0000afc0       __exit                     1000bfc0 f   LIBCMTD:crt0dat.obj
 0001:0000afe0       __get_pgmptr               1000bfe0 f   LIBCMTD:crt0dat.obj
 0001:0000b100       __get_wpgmptr              1000c100 f   LIBCMTD:crt0dat.obj
 0001:0000b220       __init_pointers            1000c220 f   LIBCMTD:crt0dat.obj
 0001:0000b2b0       __initterm_e               1000c2b0 f   LIBCMTD:crt0dat.obj
 0001:0000b2f0       __lockexit                 1000c2f0 f   LIBCMTD:crt0dat.obj
 0001:0000b300       __unlockexit               1000c300 f   LIBCMTD:crt0dat.obj
 0001:0000b510       _exit                      1000c510 f   LIBCMTD:crt0dat.obj
 0001:0000b530       __set_abort_behavior       1000c530 f   LIBCMTD:abort.obj
 0001:0000b560       _abort                     1000c560 f   LIBCMTD:abort.obj
 0001:0000b5d0       ___set_app_type            1000c5d0 f   LIBCMTD:errmode.obj
 0001:0000b5e0       __set_error_mode           1000c5e0 f   LIBCMTD:errmode.obj
 0001:0000bae0       __i64tow_s                 1000cae0 f   LIBCMTD:xtows.obj
 0001:0000bb30       __itow_s                   1000cb30 f   LIBCMTD:xtows.obj
 0001:0000bb90       __ltow_s                   1000cb90 f   LIBCMTD:xtows.obj
 0001:0000bbd0       __ui64tow_s                1000cbd0 f   LIBCMTD:xtows.obj
 0001:0000bbf0       __ultow_s                  1000cbf0 f   LIBCMTD:xtows.obj
 0001:0000c010       __fflush_nolock            1000d010 f   LIBCMTD:fflush.obj
 0001:0000c080       __flush                    1000d080 f   LIBCMTD:fflush.obj
 0001:0000c140       __flushall                 1000d140 f   LIBCMTD:fflush.obj
 0001:0000c150       _fflush                    1000d150 f   LIBCMTD:fflush.obj
 0001:0000c390       _setvbuf                   1000d390 f   LIBCMTD:setvbuf.obj
 0001:0000c690       __fwprintf_l               1000d690 f   LIBCMTD:fwprintf.obj
 0001:0000c6c0       __fwprintf_p               1000d6c0 f   LIBCMTD:fwprintf.obj
 0001:0000c6f0       __fwprintf_p_l             1000d6f0 f   LIBCMTD:fwprintf.obj
 0001:0000c720       __fwprintf_s_l             1000d720 f   LIBCMTD:fwprintf.obj
 0001:0000c750       _fwprintf                  1000d750 f   LIBCMTD:fwprintf.obj
 0001:0000c900       _fwprintf_s                1000d900 f   LIBCMTD:fwprintf.obj
 0001:0000c930       __vsnwprintf_s             1000d930 f   LIBCMTD:vswprnc.obj
 0001:0000c960       __vsnwprintf_s_l           1000d960 f   LIBCMTD:vswprnc.obj
 0001:0000cd40       __vswprintf_c              1000dd40 f   LIBCMTD:vswprnc.obj
 0001:0000cd90       __vswprintf_c_l            1000dd90 f   LIBCMTD:vswprnc.obj
 0001:0000cde0       __vswprintf_helper         1000dde0 f   LIBCMTD:vswprnc.obj
 0001:0000d050       __vswprintf_p              1000e050 f   LIBCMTD:vswprnc.obj
 0001:0000d0a0       __vswprintf_p_l            1000e0a0 f   LIBCMTD:vswprnc.obj
 0001:0000d0f0       __vswprintf_s_l            1000e0f0 f   LIBCMTD:vswprnc.obj
 0001:0000d380       _vswprintf_s               1000e380 f   LIBCMTD:vswprnc.obj
 0001:0000d3a0       ___fpecode                 1000e3a0 f   LIBCMTD:winsig.obj
 0001:0000d3b0       ___get_sigabrt             1000e3b0 f   LIBCMTD:winsig.obj
 0001:0000d3d0       ___pxcptinfoptrs           1000e3d0 f   LIBCMTD:winsig.obj
 0001:0000d3e0       __initp_misc_winsig        1000e3e0 f   LIBCMTD:winsig.obj
 0001:0000d500       _raise                     1000e500 f   LIBCMTD:winsig.obj
 0001:0000d870       _signal                    1000e870 f   LIBCMTD:winsig.obj
 0001:0000dc20       ___crtMessageBoxW          1000ec20 f   LIBCMTD:crtmboxw.obj
 0001:0000df30       ___crtMessageBoxWaitThreadW@4 1000ef30 f   LIBCMTD:crtmboxw.obj
 0001:0000df70       __FF_MSGBANNER             1000ef70 f   LIBCMTD:crt0msg.obj
 0001:0000dfc0       __GET_RTERRMSG             1000efc0 f   LIBCMTD:crt0msg.obj
 0001:0000e000       __NMSG_WRITE               1000f000 f   LIBCMTD:crt0msg.obj
 0001:0000e3c0       ?_RTC_GetErrorFunc@@YAP6AHHPBDH00ZZPBX@Z 1000f3c0 f   LIBCMTD:userapi.obj
 0001:0000e3d0       ?_RTC_GetErrorFuncW@@YAP6AHHPB_WH00ZZPBX@Z 1000f3d0 f   LIBCMTD:userapi.obj
 0001:0000e3e0       __RTC_GetErrDesc           1000f3e0 f   LIBCMTD:userapi.obj
 0001:0000e400       __RTC_NumErrors            1000f400 f   LIBCMTD:userapi.obj
 0001:0000e410       __RTC_SetErrorFunc         1000f410 f   LIBCMTD:userapi.obj
 0001:0000e430       __RTC_SetErrorFuncW        1000f430 f   LIBCMTD:userapi.obj
 0001:0000e450       __RTC_SetErrorType         1000f450 f   LIBCMTD:userapi.obj
 0001:0000e480       __CRT_RTC_INIT             1000f480 f   LIBCMTD:chkesp.obj
 0001:0000e490       __CRT_RTC_INITW            1000f490 f   LIBCMTD:chkesp.obj
 0001:0000e4a0       __chkesp                   1000f4a0 f   LIBCMTD:chkesp.obj
 0001:0000e4e0       ??0_LocaleUpdate@@QAE@PAUlocaleinfo_struct@@@Z 1000f4e0 f i LIBCMTD:cvt.obj
 0001:0000e5c0       ??1_LocaleUpdate@@QAE@XZ   1000f5c0 f i LIBCMTD:cvt.obj
 0001:0000e5f0       ?GetLocaleT@_LocaleUpdate@@QAEPAUlocaleinfo_struct@@XZ 1000f5f0 f i LIBCMTD:cvt.obj
 0001:0000e600       ?strrchr@@YAPADPADH@Z      1000f600 f i LIBCMTD:cvt.obj
 0001:0000e620       __cfltcvt                  1000f620 f   LIBCMTD:cvt.obj
 0001:0000e650       __cfltcvt_l                1000f650 f   LIBCMTD:cvt.obj
 0001:0000e710       __cftoa                    1000f710 f   LIBCMTD:cvt.obj
 0001:0000e740       __cftoa_l                  1000f740 f   LIBCMTD:cvt.obj
 0001:0000efb0       __cftoe                    1000ffb0 f   LIBCMTD:cvt.obj
 0001:0000f3f0       __cftoe_l                  100103f0 f   LIBCMTD:cvt.obj
 0001:0000f620       __cftof                    10010620 f   LIBCMTD:cvt.obj
 0001:0000f8d0       __cftof_l                  100108d0 f   LIBCMTD:cvt.obj
 0001:0000fad0       __cftog                    10010ad0 f   LIBCMTD:cvt.obj
 0001:0000fb00       __cftog_l                  10010b00 f   LIBCMTD:cvt.obj
 0001:0000fd90       __cropzeros                10010d90 f   LIBCMTD:cvt.obj
 0001:0000fdb0       __cropzeros_l              10010db0 f   LIBCMTD:cvt.obj
 0001:0000fed0       __fassign                  10010ed0 f   LIBCMTD:cvt.obj
 0001:0000fef0       __fassign_l                10010ef0 f   LIBCMTD:cvt.obj
 0001:0000ff40       __forcdecpt                10010f40 f   LIBCMTD:cvt.obj
 0001:0000ff60       __forcdecpt_l              10010f60 f   LIBCMTD:cvt.obj
 0001:00010030       __positive                 10011030 f   LIBCMTD:cvt.obj
 0001:00010090       __setdefaultprecision      10011090 f   LIBCMTD:fp8.obj
 0001:000100d0       __initp_misc_cfltcvt_tab   100110d0 f   LIBCMTD:cmiscdat.obj
 0001:00010110       __fcloseall                10011110 f   LIBCMTD:closeall.obj
 0001:00010240       __lock                     10011240 f   LIBCMTD:mlock.obj
 0001:00010280       __lockerr_exit             10011280 f   LIBCMTD:mlock.obj
 0001:000102b0       __mtdeletelocks            100112b0 f   LIBCMTD:mlock.obj
 0001:00010370       __mtinitlocknum            10011370 f   LIBCMTD:mlock.obj
 0001:00010490       __mtinitlocks              10011490 f   LIBCMTD:mlock.obj
 0001:00010510       __unlock                   10011510 f   LIBCMTD:mlock.obj
 0001:000109c0       __CrtCheckMemory           100119c0 f   LIBCMTD:dbgheap.obj
 0001:00010e20       __CrtDoForAllClientObjects 10011e20 f   LIBCMTD:dbgheap.obj
 0001:00010f50       __CrtDumpMemoryLeaks       10011f50 f   LIBCMTD:dbgheap.obj
 0001:00010ff0       __CrtGetAllocHook          10011ff0 f   LIBCMTD:dbgheap.obj
 0001:00011000       __CrtGetCheckCount         10012000 f   LIBCMTD:dbgheap.obj
 0001:00011010       __CrtGetDumpClient         10012010 f   LIBCMTD:dbgheap.obj
 0001:00011020       __CrtIsMemoryBlock         10012020 f   LIBCMTD:dbgheap.obj
 0001:00011190       __CrtIsValidHeapPointer    10012190 f   LIBCMTD:dbgheap.obj
 0001:000111d0       __CrtIsValidPointer        100121d0 f   LIBCMTD:dbgheap.obj
 0001:00011200       __CrtMemCheckpoint         10012200 f   LIBCMTD:dbgheap.obj
 0001:00011430       __CrtMemDifference         10012430 f   LIBCMTD:dbgheap.obj
 0001:00011690       __CrtMemDumpAllObjectsSince 10012690 f   LIBCMTD:dbgheap.obj
 0001:000116d0       __CrtMemDumpStatistics     100126d0 f   LIBCMTD:dbgheap.obj
 0001:000117f0       __CrtReportBlockType       100127f0 f   LIBCMTD:dbgheap.obj
 0001:00011820       __CrtSetAllocHook          10012820 f   LIBCMTD:dbgheap.obj
 0001:00011840       __CrtSetBreakAlloc         10012840 f   LIBCMTD:dbgheap.obj
 0001:00011860       __CrtSetCheckCount         10012860 f   LIBCMTD:dbgheap.obj
 0001:00011880       __CrtSetDbgBlockType       10012880 f   LIBCMTD:dbgheap.obj
 0001:00011970       __CrtSetDbgFlag            10012970 f   LIBCMTD:dbgheap.obj
 0001:00011ac0       __CrtSetDebugFillThreshold 10012ac0 f   LIBCMTD:dbgheap.obj
 0001:00011ae0       __CrtSetDumpClient         10012ae0 f   LIBCMTD:dbgheap.obj
 0001:00011b00       __aligned_free             10012b00 f   LIBCMTD:dbgheap.obj
 0001:00011b20       __aligned_free_dbg         10012b20 f   LIBCMTD:dbgheap.obj
 0001:00011bd0       __aligned_malloc           10012bd0 f   LIBCMTD:dbgheap.obj
 0001:00011bf0       __aligned_malloc_dbg       10012bf0 f   LIBCMTD:dbgheap.obj
 0001:00011c10       __aligned_msize            10012c10 f   LIBCMTD:dbgheap.obj
 0001:00011c30       __aligned_msize_dbg        10012c30 f   LIBCMTD:dbgheap.obj
 0001:00011d50       __aligned_offset_malloc    10012d50 f   LIBCMTD:dbgheap.obj
 0001:00011d70       __aligned_offset_malloc_dbg 10012d70 f   LIBCMTD:dbgheap.obj
 0001:00011f50       __aligned_offset_realloc   10012f50 f   LIBCMTD:dbgheap.obj
 0001:00011f80       __aligned_offset_realloc_dbg 10012f80 f   LIBCMTD:dbgheap.obj
 0001:00012290       __aligned_offset_recalloc  10013290 f   LIBCMTD:dbgheap.obj
 0001:000122c0       __aligned_offset_recalloc_dbg 100132c0 f   LIBCMTD:dbgheap.obj
 0001:00012380       __aligned_realloc          10013380 f   LIBCMTD:dbgheap.obj
 0001:000123a0       __aligned_realloc_dbg      100133a0 f   LIBCMTD:dbgheap.obj
 0001:000123d0       __aligned_recalloc         100133d0 f   LIBCMTD:dbgheap.obj
 0001:00012400       __aligned_recalloc_dbg     10013400 f   LIBCMTD:dbgheap.obj
 0001:00012430       __calloc_dbg               10013430 f   LIBCMTD:dbgheap.obj
 0001:00012490       __calloc_dbg_impl          10013490 f   LIBCMTD:dbgheap.obj
 0001:00012510       __expand                   10013510 f   LIBCMTD:dbgheap.obj
 0001:00012540       __expand_dbg               10013540 f   LIBCMTD:dbgheap.obj
 0001:00012660       __free_dbg                 10013660 f   LIBCMTD:dbgheap.obj
 0001:000126e0       __free_dbg_nolock          100136e0 f   LIBCMTD:dbgheap.obj
 0001:00012be0       __free_nolock              10013be0 f   LIBCMTD:dbgheap.obj
 0001:00012c00       __heap_alloc               10013c00 f   LIBCMTD:dbgheap.obj
 0001:00012c20       __heap_alloc_dbg           10013c20 f   LIBCMTD:dbgheap.obj
 0001:00013040       __invoke_watson_if_oneof   10014040 f i LIBCMTD:dbgheap.obj
 0001:00013080       __malloc_dbg               10014080 f   LIBCMTD:dbgheap.obj
 0001:000130b0       __msize                    100140b0 f   LIBCMTD:dbgheap.obj
 0001:000130d0       __msize_dbg                100140d0 f   LIBCMTD:dbgheap.obj
 0001:000132e0       __nh_malloc                100142e0 f   LIBCMTD:dbgheap.obj
 0001:00013300       __nh_malloc_dbg            10014300 f   LIBCMTD:dbgheap.obj
 0001:00013590       __realloc_dbg              10014590 f   LIBCMTD:dbgheap.obj
 0001:00013620       __recalloc                 10014620 f   LIBCMTD:dbgheap.obj
 0001:00013650       __recalloc_dbg             10014650 f   LIBCMTD:dbgheap.obj
 0001:00013d10       __fileno                   10014d10 f   LIBCMTD:fileno.obj
 0001:00013da0       __vfprintf_l               10014da0 f   LIBCMTD:vfprintf.obj
 0001:00013dd0       __vfprintf_p               10014dd0 f   LIBCMTD:vfprintf.obj
 0001:00013df0       __vfprintf_p_l             10014df0 f   LIBCMTD:vfprintf.obj
 0001:00013e20       __vfprintf_s_l             10014e20 f   LIBCMTD:vfprintf.obj
 0001:00013e50       _vfprintf                  10014e50 f   LIBCMTD:vfprintf.obj
 0001:00013e70       _vfprintf_helper           10014e70 f   LIBCMTD:vfprintf.obj
 0001:00014150       _vfprintf_s                10015150 f   LIBCMTD:vfprintf.obj
 0001:00014170       ?_CrtDbgReportW@@YAHHPBGH00ZZ 10015170 f   LIBCMTD:dbgrptw.obj
 0001:000141c0       __CrtDbgReportW            100151c0 f   LIBCMTD:dbgrptw.obj
 0001:00014210       __CrtDbgReportWV           10015210 f i LIBCMTD:dbgrptw.obj
 0001:00014240       __CrtSetReportHookW2       10015240 f   LIBCMTD:dbgrptw.obj
 0001:00014590       ___crtMessageWindowW       10015590 f   LIBCMTD:dbgrptw.obj
 0001:00014a40       __ftbuf                    10015a40 f   LIBCMTD:_sftbuf.obj
 0001:00014ad0       __stbuf                    10015ad0 f   LIBCMTD:_sftbuf.obj
 0001:00014c40       __output_l                 10015c40 f   LIBCMTD:output.obj
 0001:00016300       _get_int64_arg             10017300 f i LIBCMTD:output.obj
 0001:00016320       _get_int_arg               10017320 f i LIBCMTD:output.obj
 0001:00016340       _get_short_arg             10017340 f i LIBCMTD:output.obj
 0001:00016500       __ioinit                   10017500 f   LIBCMTD:ioinit.obj
 0001:00016530       __ioinit0                  10017530 f   LIBCMTD:ioinit.obj
 0001:00016560       __ioinitCallback@12        10017560 f   LIBCMTD:ioinit.obj
 0001:00016a70       __ioterm                   10017a70 f   LIBCMTD:ioinit.obj
 0001:00016b70       __except_handler4          10017b70 f   LIBCMTD:chandler4.obj
 0001:00016d30       __vprintf_l                10017d30 f   LIBCMTD:vprintf.obj
 0001:00016d50       __vprintf_p                10017d50 f   LIBCMTD:vprintf.obj
 0001:00016d70       __vprintf_p_l              10017d70 f   LIBCMTD:vprintf.obj
 0001:00016d90       __vprintf_s_l              10017d90 f   LIBCMTD:vprintf.obj
 0001:00016db0       _vprintf                   10017db0 f   LIBCMTD:vprintf.obj
 0001:00016dd0       _vprintf_helper            10017dd0 f   LIBCMTD:vprintf.obj
 0001:00016f10       _vprintf_s                 10017f10 f   LIBCMTD:vprintf.obj
 0001:00016f30       ___get_flsindex            10017f30 f   LIBCMTD:tidtable.obj
 0001:00016f40       ___threadhandle            10017f40 f   LIBCMTD:tidtable.obj
 0001:00016f50       ___threadid                10017f50 f   LIBCMTD:tidtable.obj
 0001:00016f60       __freefls@4                10017f60 f   LIBCMTD:tidtable.obj
 0001:00017160       __freeptd                  10018160 f   LIBCMTD:tidtable.obj
 0001:000171a0       __getptd                   100181a0 f   LIBCMTD:tidtable.obj
 0001:000171d0       __getptd_noexit            100181d0 f   LIBCMTD:tidtable.obj
 0001:00017280       __initptd                  10018280 f   LIBCMTD:tidtable.obj
 0001:000173c0       __mtinit                   100183c0 f   LIBCMTD:tidtable.obj
 0001:00017470       __mtterm                   10018470 f   LIBCMTD:tidtable.obj
 0001:000174a0       ___isa_available_init      100184a0 f   LIBCMTD:cpu_disp.obj
 0001:000176a0       __VEC_memset               100186a0 f   LIBCMTD:p4_memset.obj
 0001:00017770       ___sys_errlist             10018770 f   LIBCMTD:syserr.obj
 0001:00017780       ___sys_nerr                10018780 f   LIBCMTD:syserr.obj
 0001:00017790       _strlen                    10018790 f   LIBCMTD:strlen.obj
 0001:00017820       ___lock_fhandle            10018820 f   LIBCMTD:osfinfo.obj
 0001:00017910       __alloc_osfhnd             10018910 f   LIBCMTD:osfinfo.obj
 0001:00017bc0       __free_osfhnd              10018bc0 f   LIBCMTD:osfinfo.obj
 0001:00017cb0       __get_osfhandle            10018cb0 f   LIBCMTD:osfinfo.obj
 0001:00017e40       __open_osfhandle           10018e40 f   LIBCMTD:osfinfo.obj
 0001:00018070       __set_osfhnd               10019070 f   LIBCMTD:osfinfo.obj
 0001:00018140       __unlock_fhandle           10019140 f   LIBCMTD:osfinfo.obj
 0001:00018170       __write                    10019170 f   LIBCMTD:write.obj
 0001:000183d0       __write_nolock             100193d0 f   LIBCMTD:write.obj
 0001:00019610       ?_RTC_GetSrcLine@@YAHPAEPA_WKPAH1K@Z 1001a610 f   LIBCMTD:pdblkup.obj
 0001:000198c0       __CrtDefaultAllocHook      1001a8c0 f   LIBCMTD:dbghook.obj
 0001:000198d0       __crt_debugger_hook        1001a8d0 f   LIBCMTD:dbghook.obj
 0001:00019940       ___crtFlsAlloc             1001a940 f   LIBCMTD:winapisupp.obj
 0001:00019950       ___crtFlsFree              1001a950 f   LIBCMTD:winapisupp.obj
 0001:00019960       ___crtFlsGetValue          1001a960 f   LIBCMTD:winapisupp.obj
 0001:00019970       ___crtFlsSetValue          1001a970 f   LIBCMTD:winapisupp.obj
 0001:00019990       ___crtGetShowWindowMode    1001a990 f   LIBCMTD:winapisupp.obj
 0001:000199c0       ___crtIsPackagedApp        1001a9c0 f   LIBCMTD:winapisupp.obj
 0001:00019a00       ___crtSetUnhandledExceptionFilter 1001aa00 f   LIBCMTD:winapisupp.obj
 0001:00019a10       ___crtTerminateProcess     1001aa10 f   LIBCMTD:winapisupp.obj
 0001:00019a30       ___crtUnhandledException   1001aa30 f   LIBCMTD:winapisupp.obj
 0001:00019a50       _strcpy_s                  1001aa50 f   LIBCMTD:strcpy_s.obj
 0001:00019d50       _strncpy_s                 1001ad50 f   LIBCMTD:strncpy_s.obj
 0001:0001a170       __XcptFilter               1001b170 f   LIBCMTD:winxfltr.obj
 0001:0001a370       ___CppXcptFilter           1001b370 f   LIBCMTD:winxfltr.obj
 0001:0001a400       __get_heap_handle          1001b400 f   LIBCMTD:heapinit.obj
 0001:0001a440       __heap_init                1001b440 f   LIBCMTD:heapinit.obj
 0001:0001a470       __heap_term                1001b470 f   LIBCMTD:heapinit.obj
 0001:0001a480       __set_pgmptr               1001b480 f i LIBCMTD:stdargv.obj
 0001:0001a490       __setargv                  1001b490 f   LIBCMTD:stdargv.obj
 0001:0001a960       __setenvp                  1001b960 f   LIBCMTD:stdenvp.obj
 0001:0001ab00       ___security_init_cookie    1001bb00 f   LIBCMTD:gs_support.obj
 0001:0001abe0       _DllMain@12                1001bbe0 f   LIBCMTD:dllmain.obj
 0001:0001abf0       ___crtGetEnvironmentStringsA 1001bbf0 f   LIBCMTD:a_env.obj
 0001:0001acf0       __RTC_Initialize           1001bcf0 f   LIBCMTD:initsect.obj
 0001:0001ad20       __RTC_Terminate            1001bd20 f   LIBCMTD:initsect.obj
 0001:0001ad50       __FindPESection            1001bd50 f   LIBCMTD:pesect.obj
 0001:0001add0       __IsNonwritableInCurrentImage 1001bdd0 f   LIBCMTD:pesect.obj
 0001:0001af00       __ValidateImageBase        1001bf00 f   LIBCMTD:pesect.obj
 0001:0001af60       ___onexitinit              1001bf60 f   LIBCMTD:onexit.obj
 0001:0001afc0       __onexit                   1001bfc0 f   LIBCMTD:onexit.obj
 0001:0001b180       _atexit                    1001c180 f   LIBCMTD:onexit.obj
 0001:0001b1b0       ?_inconsistency@@YAXXZ     1001c1b0 f   LIBCMTD:hooks.obj
 0001:0001b240       ?terminate@@YAXXZ          1001c240 f   LIBCMTD:hooks.obj
 0001:0001b2c0       ?unexpected@@YAXXZ         1001c2c0 f   LIBCMTD:hooks.obj
 0001:0001b2f0       __initp_eh_hooks           1001c2f0 f   LIBCMTD:hooks.obj
 0001:0001b310       ?_query_new_handler@@YAP6AHI@ZXZ 1001c310 f   LIBCMTD:handler.obj
 0001:0001b330       ?_set_new_handler@@YAP6AHI@ZH@Z 1001c330 f   LIBCMTD:handler.obj
 0001:0001b370       ?_set_new_handler@@YAP6AHI@ZP6AHI@Z@Z 1001c370 f   LIBCMTD:handler.obj
 0001:0001b3b0       __callnewh                 1001c3b0 f   LIBCMTD:handler.obj
 0001:0001b3f0       __initp_heap_handler       1001c3f0 f   LIBCMTD:handler.obj
 0001:0001b400       ___getlocaleinfo           1001c400 f   LIBCMTD:inithelp.obj
 0001:0001b700       __initp_misc_purevirt      1001c700 f   LIBCMTD:inithelp.obj
 0001:0001b710       __initp_misc_rand_s        1001c710 f   LIBCMTD:rand_s.obj
 0001:0001b720       _rand_s                    1001c720 f   LIBCMTD:rand_s.obj
 0001:0001b990       ___initmbctable            1001c990 f   LIBCMTD:mbctype.obj
 0001:0001bfb0       ___updatetmbcinfo          1001cfb0 f   LIBCMTD:mbctype.obj
 0001:0001c0c0       __getmbcp                  1001d0c0 f   LIBCMTD:mbctype.obj
 0001:0001c130       __setmbcp                  1001d130 f   LIBCMTD:mbctype.obj
 0001:0001c3d0       __setmbcp_nolock           1001d3d0 f   LIBCMTD:mbctype.obj
 0001:0001c750       __aulldiv                  1001d750 f   LIBCMTD:ulldiv.obj
 0001:0001c7c0       __aullrem                  1001d7c0 f   LIBCMTD:ullrem.obj
 0001:0001c840       __commit                   1001d840 f   LIBCMTD:commit.obj
 0001:0001ca90       __freebuf                  1001da90 f   LIBCMTD:_freebuf.obj
 0001:0001cb20       __vfwprintf_l              1001db20 f   LIBCMTD:vfwprint.obj
 0001:0001cb50       __vfwprintf_p              1001db50 f   LIBCMTD:vfwprint.obj
 0001:0001cb70       __vfwprintf_p_l            1001db70 f   LIBCMTD:vfwprint.obj
 0001:0001cba0       __vfwprintf_s_l            1001dba0 f   LIBCMTD:vfwprint.obj
 0001:0001cbd0       _vfwprintf                 1001dbd0 f   LIBCMTD:vfwprint.obj
 0001:0001cbf0       _vfwprintf_helper          1001dbf0 f   LIBCMTD:vfwprint.obj
 0001:0001cd90       _vfwprintf_s               1001dd90 f   LIBCMTD:vfwprint.obj
 0001:0001cdb0       __woutput_l                1001ddb0 f   LIBCMTD:woutput.obj
 0001:0001e3b0       __flsbuf                   1001f3b0 f   LIBCMTD:_flsbuf.obj
 0001:0001e6a0       __woutput_s_l              1001f6a0 f   LIBCMTD:woutputs.obj
 0001:0001fe10       __validate_param_reuseW    10020e10 f   LIBCMTD:woutputp.obj
 0001:000200f0       __woutput_p_l              100210f0 f   LIBCMTD:woutputp.obj
 0001:00023c20       _wcsncpy_s                 10024c20 f   LIBCMTD:wcsncpy_s.obj
 0001:00024050       __CrtDbgReport             10025050 f   LIBCMTD:dbgrpt.obj
 0001:000240a0       __CrtDbgReportV            100250a0 f i LIBCMTD:dbgrpt.obj
 0001:000240d0       __CrtSetReportHook2        100250d0 f   LIBCMTD:dbgrpt.obj
 0001:00024420       ___crtMessageWindowA       10025420 f   LIBCMTD:dbgrpt.obj
 0001:000248c0       ___addlocaleref            100258c0 f   LIBCMTD:localref.obj
 0001:000249e0       ___freetlocinfo            100259e0 f   LIBCMTD:localref.obj
 0001:00024cd0       ___removelocaleref         10025cd0 f   LIBCMTD:localref.obj
 0001:00024df0       ___updatetlocinfo          10025df0 f   LIBCMTD:localref.obj
 0001:00024ec0       __updatetlocinfoEx_nolock  10025ec0 f   LIBCMTD:localref.obj
 0001:00024f40       ___isascii                 10025f40 f i LIBCMTD:_ctype.obj
 0001:00024f70       ___iscsym                  10025f70 f i LIBCMTD:_ctype.obj
 0001:00024fb0       ___iscsymf                 10025fb0 f i LIBCMTD:_ctype.obj
 0001:00024ff0       ___toascii                 10025ff0 f i LIBCMTD:_ctype.obj
 0001:00025000       __isalnum_l                10026000 f i LIBCMTD:_ctype.obj
 0001:00025080       __isalpha_l                10026080 f i LIBCMTD:_ctype.obj
 0001:00025100       __iscntrl_l                10026100 f i LIBCMTD:_ctype.obj
 0001:00025180       __iscsym_l                 10026180 f i LIBCMTD:_ctype.obj
 0001:000251c0       __iscsymf_l                100261c0 f i LIBCMTD:_ctype.obj
 0001:00025200       __isdigit_l                10026200 f i LIBCMTD:_ctype.obj
 0001:00025280       __isgraph_l                10026280 f i LIBCMTD:_ctype.obj
 0001:00025300       __islower_l                10026300 f i LIBCMTD:_ctype.obj
 0001:00025380       __isprint_l                10026380 f i LIBCMTD:_ctype.obj
 0001:00025400       __ispunct_l                10026400 f i LIBCMTD:_ctype.obj
 0001:00025480       __isspace_l                10026480 f i LIBCMTD:_ctype.obj
 0001:00025500       __isupper_l                10026500 f i LIBCMTD:_ctype.obj
 0001:00025580       __isxdigit_l               10026580 f i LIBCMTD:_ctype.obj
 0001:00025600       _isalnum                   10026600 f i LIBCMTD:_ctype.obj
 0001:00025640       _isalpha                   10026640 f i LIBCMTD:_ctype.obj
 0001:00025680       _iscntrl                   10026680 f i LIBCMTD:_ctype.obj
 0001:000256b0       _isdigit                   100266b0 f i LIBCMTD:_ctype.obj
 0001:000256e0       _isgraph                   100266e0 f i LIBCMTD:_ctype.obj
 0001:00025720       _islower                   10026720 f i LIBCMTD:_ctype.obj
 0001:00025750       _isprint                   10026750 f i LIBCMTD:_ctype.obj
 0001:00025790       _ispunct                   10026790 f i LIBCMTD:_ctype.obj
 0001:000257c0       _isspace                   100267c0 f i LIBCMTD:_ctype.obj
 0001:000257f0       _isupper                   100267f0 f i LIBCMTD:_ctype.obj
 0001:00025820       _isxdigit                  10026820 f i LIBCMTD:_ctype.obj
 0001:00025860       __tolower                  10026860 f   LIBCMTD:tolower.obj
 0001:00025870       __tolower_l                10026870 f   LIBCMTD:tolower.obj
 0001:00025ab0       _tolower                   10026ab0 f   LIBCMTD:tolower.obj
 0001:00025b00       _memmove                   10026b00 f   LIBCMTD:memmove.obj
 0001:00026150       _strrchr                   10027150 f   LIBCMTD:strrchr.obj
 0001:00026290       __fptostr                  10027290 f   LIBCMTD:_fptostr.obj
 0001:000265b0       __atodbl                   100275b0 f   LIBCMTD:atodbl.obj
 0001:000265d0       __atodbl_l                 100275d0 f   LIBCMTD:atodbl.obj
 0001:000266d0       __atoflt                   100276d0 f   LIBCMTD:atodbl.obj
 0001:000266f0       __atoflt_l                 100276f0 f   LIBCMTD:atodbl.obj
 0001:000267f0       __atoldbl                  100277f0 f   LIBCMTD:atodbl.obj
 0001:00026810       __atoldbl_l                10027810 f   LIBCMTD:atodbl.obj
 0001:00026910       ___dtold                   10027910 f   LIBCMTD:cfout.obj
 0001:00026a70       __fltout2                  10027a70 f   LIBCMTD:cfout.obj
 0001:00026b20       __alldiv                   10027b20 f   LIBCMTD:lldiv.obj
 0001:00026bd0       __allrem                   10027bd0 f   LIBCMTD:llrem.obj
 0001:00026c90       __allshl                   10027c90 f   LIBCMTD:llshl.obj
 0001:00026cb0       __aullshr                  10027cb0 f   LIBCMTD:ullshr.obj
 0001:00026cd0       __get_output_format        10027cd0 f   LIBCMTD:outputformat.obj
 0001:00026ce0       __set_output_format        10027ce0 f   LIBCMTD:outputformat.obj
 0001:00026d80       __controlfp_s              10027d80 f   LIBCMTD:contrlfp.obj
 0001:00026e70       __fptrap                   10027e70 f   LIBCMTD:crt0fp.obj
 0001:00026e80       __fclose_nolock            10027e80 f   LIBCMTD:fclose.obj
 0001:00026f90       _fclose                    10027f90 f   LIBCMTD:fclose.obj
 0001:000270b0       __chvalidator              100280b0 f   LIBCMTD:isctype.obj
 0001:00027100       __chvalidator_l            10028100 f   LIBCMTD:isctype.obj
 0001:000271c0       __isctype                  100281c0 f   LIBCMTD:isctype.obj
 0001:00027200       __isctype_l                10028200 f   LIBCMTD:isctype.obj
 0001:00027350       __free_base                10028350 f   LIBCMTD:free.obj
 0001:000273a0       __realloc_base             100283a0 f   LIBCMTD:realloc.obj
 0001:000274a0       __expand_base              100284a0 f   LIBCMTD:expand.obj
 0001:00027610       __heapchk                  10028610 f   LIBCMTD:heapchk.obj
 0001:00027640       __heapset                  10028640 f   LIBCMTD:heapchk.obj
 0001:00027650       __scprintf                 10028650 f   LIBCMTD:sprintf.obj
 0001:00027670       __scprintf_l               10028670 f   LIBCMTD:sprintf.obj
 0001:000276a0       __scprintf_p               100286a0 f   LIBCMTD:sprintf.obj
 0001:000276c0       __scprintf_p_l             100286c0 f   LIBCMTD:sprintf.obj
 0001:000276f0       __snprintf_s               100286f0 f   LIBCMTD:sprintf.obj
 0001:00027720       __snprintf_s_l             10028720 f   LIBCMTD:sprintf.obj
 0001:00027750       __sprintf_l                10028750 f   LIBCMTD:sprintf.obj
 0001:00027780       __sprintf_p                10028780 f   LIBCMTD:sprintf.obj
 0001:000277b0       __sprintf_p_l              100287b0 f   LIBCMTD:sprintf.obj
 0001:000277e0       __sprintf_s_l              100287e0 f   LIBCMTD:sprintf.obj
 0001:00027810       _sprintf                   10028810 f   LIBCMTD:sprintf.obj
 0001:000279d0       _sprintf_s                 100289d0 f   LIBCMTD:sprintf.obj
 0001:00027a00       __heap_alloc_base          10028a00 f i LIBCMTD:malloc.obj
 0001:00027a60       __malloc_base              10028a60 f   LIBCMTD:malloc.obj
 0001:00027af0       __output_s_l               10028af0 f   LIBCMTD:outputs.obj
 0001:000294c0       __output_p_l               1002a4c0 f   LIBCMTD:outputp.obj
 0001:0002d2e0       __validate_param_reuseA    1002e2e0 f   LIBCMTD:outputp.obj
 0001:0002d5d0       _get_crtdouble_arg         1002e5d0 f i LIBCMTD:outputp.obj
 0001:0002d790       ___swprintf_l              1002e790 f   LIBCMTD:swprintf.obj
 0001:0002d7c0       __scwprintf                1002e7c0 f   LIBCMTD:swprintf.obj
 0001:0002d7e0       __scwprintf_l              1002e7e0 f   LIBCMTD:swprintf.obj
 0001:0002d810       __scwprintf_p              1002e810 f   LIBCMTD:swprintf.obj
 0001:0002d830       __scwprintf_p_l            1002e830 f   LIBCMTD:swprintf.obj
 0001:0002d860       __snwprintf_s              1002e860 f   LIBCMTD:swprintf.obj
 0001:0002d890       __snwprintf_s_l            1002e890 f   LIBCMTD:swprintf.obj
 0001:0002d8c0       __swprintf                 1002e8c0 f   LIBCMTD:swprintf.obj
 0001:0002dae0       __swprintf_p               1002eae0 f   LIBCMTD:swprintf.obj
 0001:0002db10       __swprintf_p_l             1002eb10 f   LIBCMTD:swprintf.obj
 0001:0002db40       __swprintf_s_l             1002eb40 f   LIBCMTD:swprintf.obj
 0001:0002db70       _swprintf_s                1002eb70 f   LIBCMTD:swprintf.obj
 0001:0002dba0       __CrtDbgBreak              1002eba0 f   LIBCMTD:dbgrptt.obj
 0001:0002dbb0       __CrtGetReportHook         1002ebb0 f   LIBCMTD:dbgrptt.obj
 0001:0002dbc0       __CrtSetReportFile         1002ebc0 f   LIBCMTD:dbgrptt.obj
 0001:0002dcc0       __CrtSetReportHook         1002ecc0 f   LIBCMTD:dbgrptt.obj
 0001:0002dce0       __CrtSetReportMode         1002ece0 f   LIBCMTD:dbgrptt.obj
 0001:0002de20       __VCrtDbgReportA           1002ee20 f   LIBCMTD:dbgrptt.obj
 0001:0002e690       __VCrtDbgReportW           1002f690 f   LIBCMTD:dbgrptt.obj
 0001:0002f000       __alloca_probe             10030000     LIBCMTD:chkstk.obj
 0001:0002f000       __chkstk                   10030000 f   LIBCMTD:chkstk.obj
 0001:0002f030       __isatty                   10030030 f   LIBCMTD:isatty.obj
 0001:0002f110       ___iswcsym                 10030110 f i LIBCMTD:_wctype.obj
 0001:0002f150       ___iswcsymf                10030150 f i LIBCMTD:_wctype.obj
 0001:0002f190       __isleadbyte_l             10030190 f i LIBCMTD:_wctype.obj
 0001:0002f1e0       __iswalnum_l               100301e0 f i LIBCMTD:_wctype.obj
 0001:0002f200       __iswalpha_l               10030200 f i LIBCMTD:_wctype.obj
 0001:0002f220       __iswcntrl_l               10030220 f i LIBCMTD:_wctype.obj
 0001:0002f240       __iswcsym_l                10030240 f i LIBCMTD:_wctype.obj
 0001:0002f280       __iswcsymf_l               10030280 f i LIBCMTD:_wctype.obj
 0001:0002f2c0       __iswdigit_l               100302c0 f i LIBCMTD:_wctype.obj
 0001:0002f2e0       __iswgraph_l               100302e0 f i LIBCMTD:_wctype.obj
 0001:0002f300       __iswlower_l               10030300 f i LIBCMTD:_wctype.obj
 0001:0002f320       __iswprint_l               10030320 f i LIBCMTD:_wctype.obj
 0001:0002f340       __iswpunct_l               10030340 f i LIBCMTD:_wctype.obj
 0001:0002f360       __iswspace_l               10030360 f i LIBCMTD:_wctype.obj
 0001:0002f380       __iswupper_l               10030380 f i LIBCMTD:_wctype.obj
 0001:0002f3a0       __iswxdigit_l              100303a0 f i LIBCMTD:_wctype.obj
 0001:0002f3c0       _isleadbyte                100303c0 f i LIBCMTD:_wctype.obj
 0001:0002f3e0       _iswalnum                  100303e0 f i LIBCMTD:_wctype.obj
 0001:0002f400       _iswalpha                  10030400 f i LIBCMTD:_wctype.obj
 0001:0002f420       _iswascii                  10030420 f i LIBCMTD:_wctype.obj
 0001:0002f450       _iswcntrl                  10030450 f i LIBCMTD:_wctype.obj
 0001:0002f470       _iswdigit                  10030470 f i LIBCMTD:_wctype.obj
 0001:0002f490       _iswgraph                  10030490 f i LIBCMTD:_wctype.obj
 0001:0002f4b0       _iswlower                  100304b0 f i LIBCMTD:_wctype.obj
 0001:0002f4d0       _iswprint                  100304d0 f i LIBCMTD:_wctype.obj
 0001:0002f4f0       _iswpunct                  100304f0 f i LIBCMTD:_wctype.obj
 0001:0002f510       _iswspace                  10030510 f i LIBCMTD:_wctype.obj
 0001:0002f530       _iswupper                  10030530 f i LIBCMTD:_wctype.obj
 0001:0002f550       _iswxdigit                 10030550 f i LIBCMTD:_wctype.obj
 0001:0002f570       __wctomb_l                 10030570 f   LIBCMTD:wctomb.obj
 0001:0002f5f0       __wctomb_s_l               100305f0 f   LIBCMTD:wctomb.obj
 0001:0002f940       _wctomb                    10030940 f   LIBCMTD:wctomb.obj
 0001:0002f990       _wctomb_s                  10030990 f   LIBCMTD:wctomb.obj
 0001:0002f9b0       __local_unwind4            100309b0 f   LIBCMTD:exsup4.obj
 0001:0002fa86       __seh_longjmp_unwind4@4    10030a86 f   LIBCMTD:exsup4.obj
 0001:0002faa2       @_EH4_CallFilterFunc@8     10030aa2 f   LIBCMTD:exsup4.obj
 0001:0002fab9       @_EH4_TransferToHandler@8  10030ab9 f   LIBCMTD:exsup4.obj
 0001:0002fad2       @_EH4_GlobalUnwind2@8      10030ad2 f   LIBCMTD:exsup4.obj
 0001:0002faeb       @_EH4_LocalUnwind@16       10030aeb f   LIBCMTD:exsup4.obj
 0001:0002fb10       __lseeki64                 10030b10 f   LIBCMTD:lseeki64.obj
 0001:0002fd90       __lseeki64_nolock          10030d90 f   LIBCMTD:lseeki64.obj
 0001:0002fe60       __mbtowc_l                 10030e60 f   LIBCMTD:mbtowc.obj
 0001:000300a0       _mbtowc                    100310a0 f   LIBCMTD:mbtowc.obj
 0001:000300c0       __putwch                   100310c0 f   LIBCMTD:putwch.obj
 0001:00030150       __putwch_nolock            10031150 f   LIBCMTD:putwch.obj
 0001:000301a0       __wmakepath_s              100311a0 f   LIBCMTD:wmakepath_s.obj
 0001:00030560       __wsplitpath_s             10031560 f   LIBCMTD:wsplitpath_s.obj
 0001:00030c60       __ismbbalnum               10031c60 f   LIBCMTD:ismbbyte.obj
 0001:00030c80       __ismbbalnum_l             10031c80 f   LIBCMTD:ismbbyte.obj
 0001:00030ca0       __ismbbalpha               10031ca0 f   LIBCMTD:ismbbyte.obj
 0001:00030cc0       __ismbbalpha_l             10031cc0 f   LIBCMTD:ismbbyte.obj
 0001:00030ce0       __ismbbgraph               10031ce0 f   LIBCMTD:ismbbyte.obj
 0001:00030d00       __ismbbgraph_l             10031d00 f   LIBCMTD:ismbbyte.obj
 0001:00030d20       __ismbbkalnum              10031d20 f   LIBCMTD:ismbbyte.obj
 0001:00030d40       __ismbbkalnum_l            10031d40 f   LIBCMTD:ismbbyte.obj
 0001:00030d60       __ismbbkana                10031d60 f   LIBCMTD:ismbbyte.obj
 0001:00030d80       __ismbbkana_l              10031d80 f   LIBCMTD:ismbbyte.obj
 0001:00030df0       __ismbbkprint              10031df0 f   LIBCMTD:ismbbyte.obj
 0001:00030e10       __ismbbkprint_l            10031e10 f   LIBCMTD:ismbbyte.obj
 0001:00030e30       __ismbbkpunct              10031e30 f   LIBCMTD:ismbbyte.obj
 0001:00030e50       __ismbbkpunct_l            10031e50 f   LIBCMTD:ismbbyte.obj
 0001:00030e70       __ismbblead                10031e70 f   LIBCMTD:ismbbyte.obj
 0001:00030e90       __ismbblead_l              10031e90 f   LIBCMTD:ismbbyte.obj
 0001:00030eb0       __ismbbprint               10031eb0 f   LIBCMTD:ismbbyte.obj
 0001:00030ed0       __ismbbprint_l             10031ed0 f   LIBCMTD:ismbbyte.obj
 0001:00030ef0       __ismbbpunct               10031ef0 f   LIBCMTD:ismbbyte.obj
 0001:00030f10       __ismbbpunct_l             10031f10 f   LIBCMTD:ismbbyte.obj
 0001:00030f30       __ismbbtrail               10031f30 f   LIBCMTD:ismbbyte.obj
 0001:00030f50       __ismbbtrail_l             10031f50 f   LIBCMTD:ismbbyte.obj
 0001:00031080       __MarkAllocaS              10032080 f i LIBCMTD:a_loc.obj
 0001:000310a0       ___crtGetLocaleInfoA       100320a0 f   LIBCMTD:a_loc.obj
 0001:000310f0       __freea                    100320f0 f i LIBCMTD:a_loc.obj
 0001:00031160       ___crtCompareStringEx      10032160 f   LIBCMTD:winapinls.obj
 0001:00031190       ___crtEnumSystemLocalesEx  10032190 f   LIBCMTD:winapinls.obj
 0001:000311b0       ___crtGetDateFormatEx      100321b0 f   LIBCMTD:winapinls.obj
 0001:000311e0       ___crtGetLocaleInfoEx      100321e0 f   LIBCMTD:winapinls.obj
 0001:00031200       ___crtGetTimeFormatEx      10032200 f   LIBCMTD:winapinls.obj
 0001:00031230       ___crtGetUserDefaultLocaleName 10032230 f   LIBCMTD:winapinls.obj
 0001:00031250       ___crtIsValidLocaleName    10032250 f   LIBCMTD:winapinls.obj
 0001:00031260       ___crtLCMapStringEx        10032260 f   LIBCMTD:winapinls.obj
 0001:00031580       ___crtLCMapStringA         10032580 f   LIBCMTD:a_map.obj
 0001:000316f0       ___crtGetStringTypeA       100326f0 f   LIBCMTD:a_str.obj
 0001:00031840       ?_CallCatchBlock2@@YAPAXPAUEHRegistrationNode@@PBU_s_FuncInfo@@PAXHK@Z 10032840 f   LIBCMTD:_trnsctrl_.obj
 0001:000318b0       ?_CallMemberFunction0@@YGXPAX0@Z 100328b0 f   LIBCMTD:_trnsctrl_.obj
 0001:000318c0       ?_CallMemberFunction1@@YGXPAX00@Z 100328c0 f   LIBCMTD:_trnsctrl_.obj
 0001:000318d0       ?_CallMemberFunction2@@YGXPAX00H@Z 100328d0 f   LIBCMTD:_trnsctrl_.obj
 0001:000318e0       ?_CallSETranslator@@YAHPAUEHExceptionRecord@@PAUEHRegistrationNode@@PAX2PBU_s_FuncInfo@@H1@Z 100328e0 f   LIBCMTD:_trnsctrl_.obj
 0001:000319d0       ?_GetRangeOfTrysToCheck@@YAPBU_s_TryBlockMapEntry@@PBU_s_FuncInfo@@HHPAI1@Z 100329d0 f   LIBCMTD:_trnsctrl_.obj
 0001:00031a60       ?_JumpToContinuation@@YGXPAXPAUEHRegistrationNode@@@Z 10032a60 f   LIBCMTD:_trnsctrl_.obj
 0001:00031aa0       ?_UnwindNestedFrames@@YGXPAUEHRegistrationNode@@PAUEHExceptionRecord@@@Z 10032aa0 f   LIBCMTD:_trnsctrl_.obj
 0001:00031b00       __CreateFrameInfo          10032b00 f   LIBCMTD:_trnsctrl_.obj
 0001:00031b30       __FindAndUnlinkFrame       10032b30 f   LIBCMTD:_trnsctrl_.obj
 0001:00031b90       __IsExceptionObjectToBeDestroyed 10032b90 f   LIBCMTD:_trnsctrl_.obj
 0001:00031bc0       ___CxxFrameHandler         10032bc0 f   LIBCMTD:_trnsctrl_.obj
 0001:00031c00       ___CxxFrameHandler2        10032c00 f   LIBCMTD:_trnsctrl_.obj
 0001:00031c40       ___CxxFrameHandler3        10032c40 f   LIBCMTD:_trnsctrl_.obj
 0001:00031c80       ___CxxLongjmpUnwind@4      10032c80 f   LIBCMTD:_trnsctrl_.obj
 0001:00031cb0       __fputwc_nolock            10032cb0 f   LIBCMTD:fputwc.obj
 0001:00031fa0       _fputwc                    10032fa0 f   LIBCMTD:fputwc.obj
 0001:000320c0       _putwc                     100330c0 f   LIBCMTD:fputwc.obj
 0001:000320e0       __getbuf                   100330e0 f   LIBCMTD:_getbuf.obj
 0001:00032570       __wcstol_l                 10033570 f   LIBCMTD:wcstol.obj
 0001:00032590       __wcstoul_l                10033590 f   LIBCMTD:wcstol.obj
 0001:000325b0       _wcstol                    100335b0 f   LIBCMTD:wcstol.obj
 0001:000325d0       _wcstoul                   100335d0 f   LIBCMTD:wcstol.obj
 0001:000325f0       ___free_lconv_mon          100335f0 f   LIBCMTD:initmon.obj
 0001:000327a0       ___init_monetary           100337a0 f   LIBCMTD:initmon.obj
 0001:00032db0       ___free_lconv_num          10033db0 f   LIBCMTD:initnum.obj
 0001:00032e60       ___init_numeric            10033e60 f   LIBCMTD:initnum.obj
 0001:00033230       ___free_lc_time            10034230 f   LIBCMTD:inittime.obj
 0001:00033b60       ___init_time               10034b60 f   LIBCMTD:inittime.obj
 0001:00034b60       _localeconv                10035b60 f   LIBCMTD:lconv.obj
 0001:00034bb0       __locterm                  10035bb0 f   LIBCMTD:wsetloca.obj
 0001:00034c40       ___init_dummy              10035c40 f   LIBCMTD:wsetloca.obj
 0001:00034c50       ____setlc_active_func      10035c50 f   LIBCMTD:wsetloca.obj
 0001:00034c60       ____unguarded_readlc_active_add_func 10035c60 f   LIBCMTD:wsetloca.obj
 0001:00034c70       ___copy_locale_name        10035c70 f   LIBCMTD:wsetloca.obj
 0001:00034d10       ___create_locale           10035d10 f   LIBCMTD:wsetloca.obj
 0001:00034d30       ___free_locale             10035d30 f   LIBCMTD:wsetloca.obj
 0001:00034d50       ___get_current_locale      10035d50 f   LIBCMTD:wsetloca.obj
 0001:00034d60       ___lc_lctowcs              10035d60 f   LIBCMTD:wsetloca.obj
 0001:00034e10       ___lc_wcstolc              10035e10 f   LIBCMTD:wsetloca.obj
 0001:00035030       __configthreadlocale       10036030 f   LIBCMTD:wsetloca.obj
 0001:00035190       __create_locale            10036190 f   LIBCMTD:wsetloca.obj
 0001:00035200       __expandlocale             10036200 f   LIBCMTD:wsetloca.obj
 0001:00035680       __free_locale              10036680 f   LIBCMTD:wsetloca.obj
 0001:000357b0       __get_current_locale       100367b0 f   LIBCMTD:wsetloca.obj
 0001:000358d0       __wcreate_locale           100368d0 f   LIBCMTD:wsetloca.obj
 0001:00035ab0       __wcscats                  10036ab0 f   LIBCMTD:wsetloca.obj
 0001:00035b30       __wsetlocale               10036b30 f   LIBCMTD:wsetloca.obj
 0001:00036bc0       __CopyMan                  10037bc0 f i LIBCMTD:intrncvt.obj
 0001:00036c10       __FillZeroMan              10037c10 f i LIBCMTD:intrncvt.obj
 0001:00036c40       __IncMan                   10037c40 f i LIBCMTD:intrncvt.obj
 0001:00036cf0       __IsZeroMan                10037cf0 f i LIBCMTD:intrncvt.obj
 0001:00036d30       __RoundMan                 10037d30 f i LIBCMTD:intrncvt.obj
 0001:00036e10       __ShrMan                   10037e10 f i LIBCMTD:intrncvt.obj
 0001:00036f00       __ZeroTail                 10037f00 f i LIBCMTD:intrncvt.obj
 0001:00036f90       ___addl                    10037f90 f i LIBCMTD:intrncvt.obj
 0001:00036fd0       __ld12cvt                  10037fd0 f i LIBCMTD:intrncvt.obj
 0001:00037290       __ld12tod                  10038290 f   LIBCMTD:intrncvt.obj
 0001:000372b0       __ld12tof                  100382b0 f   LIBCMTD:intrncvt.obj
 0001:000372d0       __ld12told                 100382d0 f   LIBCMTD:intrncvt.obj
 0001:000373d0       ___STRINGTOLD_L            100383d0 f   LIBCMTD:strgtold.obj
 0001:00037440       ___ld12mul                 10038440 f i LIBCMTD:strgtold.obj
 0001:00037850       ___multtenpow12            10038850 f i LIBCMTD:strgtold.obj
 0001:00037930       ___shl_12                  10038930 f i LIBCMTD:strgtold.obj
 0001:000379b0       ___shr_12                  100389b0 f i LIBCMTD:strgtold.obj
 0001:00037a30       ___strgtold12_l            10038a30 f   LIBCMTD:strgtold.obj
 0001:00038500       _$I10_OUTPUT               10039500 f   LIBCMTD:x10fout.obj
 0001:00038b10       ___add_12                  10039b10 f i LIBCMTD:x10fout.obj
 0001:00038bc0       ___pctype_func             10039bc0 f   LIBCMTD:ctype.obj
 0001:00038c10       ___pwctype_func            10039c10 f   LIBCMTD:ctype.obj
 0001:00038e20       ___control87_2             10039e20 f   LIBCMTD:ieee87.obj
 0001:000392c0       __clearfp                  1003a2c0 f   LIBCMTD:ieee87.obj
 0001:00039300       __control87                1003a300 f i LIBCMTD:ieee87.obj
 0001:000393b0       __controlfp                1003a3b0 f   LIBCMTD:ieee87.obj
 0001:000393d0       __fpreset                  1003a3d0 f   LIBCMTD:ieee87.obj
 0001:00039590       __set_controlfp            1003a590 f   LIBCMTD:ieee87.obj
 0001:00039620       __statusfp                 1003a620 f   LIBCMTD:ieee87.obj
 0001:00039660       __statusfp2                1003a660 f   LIBCMTD:ieee87.obj
 0001:000396a0       __close                    1003a6a0 f   LIBCMTD:close.obj
 0001:000398e0       __close_nolock             1003a8e0 f   LIBCMTD:close.obj
 0001:000399d0       __vscprintf                1003a9d0 f   LIBCMTD:vsprintf.obj
 0001:000399f0       __vscprintf_helper         1003a9f0 f   LIBCMTD:vsprintf.obj
 0001:00039ae0       __vscprintf_l              1003aae0 f   LIBCMTD:vsprintf.obj
 0001:00039b00       __vscprintf_p              1003ab00 f   LIBCMTD:vsprintf.obj
 0001:00039b20       __vscprintf_p_l            1003ab20 f   LIBCMTD:vsprintf.obj
 0001:00039b40       __vsprintf_l               1003ab40 f   LIBCMTD:vsprintf.obj
 0001:00039d00       _vsprintf                  1003ad00 f   LIBCMTD:vsprintf.obj
 0001:00039d20       __vsnprintf_c              1003ad20 f   LIBCMTD:vsnprnc.obj
 0001:00039d70       __vsnprintf_c_l            1003ad70 f   LIBCMTD:vsnprnc.obj
 0001:00039dc0       __vsnprintf_helper         1003adc0 f   LIBCMTD:vsnprnc.obj
 0001:00039fc0       __vsnprintf_s              1003afc0 f   LIBCMTD:vsnprnc.obj
 0001:00039ff0       __vsnprintf_s_l            1003aff0 f   LIBCMTD:vsnprnc.obj
 0001:0003a3b0       __vsprintf_p               1003b3b0 f   LIBCMTD:vsnprnc.obj
 0001:0003a400       __vsprintf_p_l             1003b400 f   LIBCMTD:vsnprnc.obj
 0001:0003a450       __vsprintf_s_l             1003b450 f   LIBCMTD:vsnprnc.obj
 0001:0003a6e0       _vsprintf_s                1003b6e0 f   LIBCMTD:vsnprnc.obj
 0001:0003ac00       __strtol_l                 1003bc00 f   LIBCMTD:strtol.obj
 0001:0003ac20       __strtoul_l                1003bc20 f   LIBCMTD:strtol.obj
 0001:0003ac40       _strtol                    1003bc40 f   LIBCMTD:strtol.obj
 0001:0003ac90       _strtoul                   1003bc90 f   LIBCMTD:strtol.obj
 0001:0003ace0       ___vswprintf_l             1003bce0 f   LIBCMTD:vswprint.obj
 0001:0003ad00       __vscwprintf               1003bd00 f   LIBCMTD:vswprint.obj
 0001:0003ad20       __vscwprintf_helper        1003bd20 f   LIBCMTD:vswprint.obj
 0001:0003ae10       __vscwprintf_l             1003be10 f   LIBCMTD:vswprint.obj
 0001:0003ae30       __vscwprintf_p             1003be30 f   LIBCMTD:vswprint.obj
 0001:0003ae50       __vscwprintf_p_l           1003be50 f   LIBCMTD:vswprint.obj
 0001:0003ae70       __vswprintf                1003be70 f   LIBCMTD:vswprint.obj
 0001:0003ae90       __vswprintf_l              1003be90 f   LIBCMTD:vswprint.obj
 0001:0003b0b0       _strcat_s                  1003c0b0 f   LIBCMTD:strcat_s.obj
 0001:0003b8e0       __i64toa_s                 1003c8e0 f   LIBCMTD:xtoas.obj
 0001:0003b930       __itoa_s                   1003c930 f   LIBCMTD:xtoas.obj
 0001:0003b990       __ltoa_s                   1003c990 f   LIBCMTD:xtoas.obj
 0001:0003b9d0       __ui64toa_s                1003c9d0 f   LIBCMTD:xtoas.obj
 0001:0003b9f0       __ultoa_s                  1003c9f0 f   LIBCMTD:xtoas.obj
 0001:0003bdf0       __mbstowcs_l               1003cdf0 f   LIBCMTD:mbstowcs.obj
 0001:0003be10       __mbstowcs_l_helper        1003ce10 f   LIBCMTD:mbstowcs.obj
 0001:0003c1a0       __mbstowcs_s_l             1003d1a0 f   LIBCMTD:mbstowcs.obj
 0001:0003c560       _mbstowcs                  1003d560 f   LIBCMTD:mbstowcs.obj
 0001:0003c5b0       _mbstowcs_s                1003d5b0 f   LIBCMTD:mbstowcs.obj
 0001:0003c640       __wcstombs_l               1003d640 f   LIBCMTD:wcstombs.obj
 0001:0003c660       __wcstombs_l_helper        1003d660 f   LIBCMTD:wcstombs.obj
 0001:0003cb70       __wcstombs_s_l             1003db70 f   LIBCMTD:wcstombs.obj
 0001:0003ced0       _wcstombs                  1003ded0 f   LIBCMTD:wcstombs.obj
 0001:0003cef0       _wcstombs_s                1003def0 f   LIBCMTD:wcstombs.obj
 0001:0003cf20       __iswctype_l               1003df20 f   LIBCMTD:iswctype.obj
 0001:0003cf40       _is_wctype                 1003df40 f   LIBCMTD:iswctype.obj
 0001:0003cf60       _iswctype                  1003df60 f   LIBCMTD:iswctype.obj
 0001:0003cfc0       ____lc_codepage_func       1003dfc0 f   LIBCMTD:initctyp.obj
 0001:0003d010       ____lc_collate_cp_func     1003e010 f   LIBCMTD:initctyp.obj
 0001:0003d060       ____lc_locale_name_func    1003e060 f   LIBCMTD:initctyp.obj
 0001:0003d0b0       ____mb_cur_max_func        1003e0b0 f   LIBCMTD:initctyp.obj
 0001:0003d100       ____mb_cur_max_l_func      1003e100 f   LIBCMTD:initctyp.obj
 0001:0003d130       ___init_ctype              1003e130 f   LIBCMTD:initctyp.obj
 0001:0003d770       __global_unwind2           1003e770 f   LIBCMTD:exsup.obj
 0001:0003d7d5       __local_unwind2            1003e7d5 f   LIBCMTD:exsup.obj
 0001:0003d859       __abnormal_termination     1003e859 f   LIBCMTD:exsup.obj
 0001:0003d87c       __NLG_Notify1              1003e87c f   LIBCMTD:exsup.obj
 0001:0003d885       __NLG_Notify               1003e885 f   LIBCMTD:exsup.obj
 0001:0003d89c       __NLG_Dispatch             1003e89c     LIBCMTD:exsup.obj
 0001:0003d89c       __NLG_Dispatch2            1003e89c     LIBCMTD:exsup.obj
 0001:0003d8a4       __NLG_Call                 1003e8a4 f   LIBCMTD:exsup.obj
 0001:0003d8a6       __NLG_Return2              1003e8a6     LIBCMTD:exsup.obj
 0001:0003d8b0       ___termconout              1003e8b0 f   LIBCMTD:initcon.obj
 0001:0003d8e0       ___initconout              1003e8e0 f   LIBCMTD:initcon.obj
 0001:0003d910       __CallSettingFrame@12      1003e910 f   LIBCMTD:lowhelpr.obj
 0001:0003d937       __NLG_Return               1003e937     LIBCMTD:lowhelpr.obj
 0001:0003d960       ___DestructExceptionObject 1003e960 f   LIBCMTD:frame.obj
 0001:0003da80       ??0bad_exception@std@@QAE@ABV01@@Z 1003ea80 f i LIBCMTD:frame.obj
 0001:0003dab0       ??0bad_exception@std@@QAE@PBD@Z 1003eab0 f i LIBCMTD:frame.obj
 0001:0003dae0       ??1bad_exception@std@@UAE@XZ 1003eae0 f i LIBCMTD:frame.obj
 0001:0003db00       ??_Gbad_exception@std@@UAEPAXI@Z 1003eb00 f i LIBCMTD:frame.obj
 0001:0003db00       ??_Ebad_exception@std@@UAEPAXI@Z 1003eb00 f i LIBCMTD:frame.obj
 0001:0003e700       ?__uncaught_exception@@YA_NXZ 1003f700 f   LIBCMTD:frame.obj
 0001:0003e730       ?_is_exception_typeof@@YAHABVtype_info@@PAU_EXCEPTION_POINTERS@@@Z 1003f730 f   LIBCMTD:frame.obj
 0001:0003e810       ___AdjustPointer           1003f810 f   LIBCMTD:frame.obj
 0001:0003e860       ___BuildCatchObject        1003f860 f   LIBCMTD:frame.obj
 0001:0003e970       ___BuildCatchObjectHelper  1003f970 f   LIBCMTD:frame.obj
 0001:0003ebf0       ___CxxDetectRethrow        1003fbf0 f   LIBCMTD:frame.obj
 0001:0003ec70       ___CxxExceptionFilter      1003fc70 f   LIBCMTD:frame.obj
 0001:0003ee70       ___CxxQueryExceptionSize   1003fe70 f   LIBCMTD:frame.obj
 0001:0003ee80       ___CxxRegisterExceptionObject 1003fe80 f   LIBCMTD:frame.obj
 0001:0003efc0       ___CxxUnregisterExceptionObject 1003ffc0 f   LIBCMTD:frame.obj
 0001:0003f140       ___FrameUnwindFilter       10040140 f   LIBCMTD:frame.obj
 0001:0003f1c0       ___FrameUnwindToState      100401c0 f   LIBCMTD:frame.obj
 0001:0003f340       ___InternalCxxFrameHandler 10040340 f   LIBCMTD:frame.obj
 0001:0003f4b0       ___TypeMatch               100404b0 f   LIBCMTD:frame.obj
 0001:0003f570       __flswbuf                  10040570 f   LIBCMTD:_flswbuf.obj
 0001:0003f870       __wchartodigit             10040870 f   LIBCMTD:wchtodig.obj
 0001:0003fb90       ___init_collate            10040b90 f   LIBCMTD:initcoll.obj
 0001:0003fd50       _memcmp                    10040d50 f   LIBCMTD:memcmp.obj
 0001:00040620       _wcscmp                    10041620 f   LIBCMTD:wcscmp.obj
 0001:00040680       _wcscspn                   10041680 f   LIBCMTD:wcscspn.obj
 0001:000406f0       _wcsnlen                   100416f0 f   LIBCMTD:wcslen_s.obj
 0001:00040730       _wcsncmp                   10041730 f   LIBCMTD:wcsncmp.obj
 0001:00040790       _wcspbrk                   10041790 f   LIBCMTD:wcspbrk.obj
 0001:00041330       ___get_qualified_locale    10042330 f   LIBCMTD:getqloc.obj
 0001:000415e0       ___mtold12                 100425e0 f   LIBCMTD:mantold.obj
 0001:00041730       ___clrfp_sse2              10042730 f   LIBCMTD:fpctrl.obj
 0001:00041770       ___ctrlfp_sse2             10042770 f   LIBCMTD:fpctrl.obj
 0001:000417d0       ___fclrf_sse2              100427d0 f   LIBCMTD:fpctrl.obj
 0001:000417f0       ___get_fpsr_sse2           100427f0 f   LIBCMTD:fpctrl.obj
 0001:00041820       ___set_fpsr_sse2           10042820 f   LIBCMTD:fpctrl.obj
 0001:00041900       ___set_statfp_sse2         10042900 f   LIBCMTD:fpctrl.obj
 0001:00041930       ___statfp_sse2             10042930 f   LIBCMTD:fpctrl.obj
 0001:00041960       __clrfp                    10042960 f   LIBCMTD:fpctrl.obj
 0001:00041980       __ctrlfp                   10042980 f   LIBCMTD:fpctrl.obj
 0001:000419b0       __set_statfp               100429b0 f   LIBCMTD:fpctrl.obj
 0001:00041a20       __statfp                   10042a20 f   LIBCMTD:fpctrl.obj
 0001:00041a30       ??3@YAXPAX@Z               10042a30 f   LIBCMTD:dbgdel.obj
 0001:00041b20       _strcmp                    10042b20 f   LIBCMTD:strcmp.obj
 0001:00041bb0       ?_ValidateExecute@@YAHP6GHXZ@Z 10042bb0 f   LIBCMTD:validate.obj
 0001:00041bd0       ?_ValidateRead@@YAHPBXI@Z  10042bd0 f   LIBCMTD:validate.obj
 0001:00041bf0       ?_ValidateWrite@@YAHPAXI@Z 10042bf0 f   LIBCMTD:validate.obj
 0001:00041c10       ??0type_info@@AAE@ABV0@@Z  10042c10 f   LIBCMTD:typinfo.obj
 0001:00041c30       ??1type_info@@UAE@XZ       10042c30 f   LIBCMTD:typinfo.obj
 0001:00041c50       ??4type_info@@AAEAAV0@ABV0@@Z 10042c50 f   LIBCMTD:typinfo.obj
 0001:00041c60       ??8type_info@@QBE_NABV0@@Z 10042c60 f   LIBCMTD:typinfo.obj
 0001:00041ca0       ??9type_info@@QBE_NABV0@@Z 10042ca0 f   LIBCMTD:typinfo.obj
 0001:00041ce0       ??_Gtype_info@@UAEPAXI@Z   10042ce0 f i LIBCMTD:typinfo.obj
 0001:00041ce0       ??_Etype_info@@UAEPAXI@Z   10042ce0 f i LIBCMTD:typinfo.obj
 0001:00041d10       ?_name_internal_method@type_info@@QBEPBDPAU__type_info_node@@@Z 10042d10 f   LIBCMTD:typinfo.obj
 0001:00041d30       ?_type_info_dtor_internal_method@type_info@@QAEXXZ 10042d30 f   LIBCMTD:typinfo.obj
 0001:00041d50       ?before@type_info@@QBE_NABV1@@Z 10042d50 f   LIBCMTD:typinfo.obj
 0001:00041d90       ?name@type_info@@QBEPBDPAU__type_info_node@@@Z 10042d90 f   LIBCMTD:typinfo.obj
 0001:00041db0       ?raw_name@type_info@@QBEPBDXZ 10042db0 f   LIBCMTD:typinfo.obj
 0001:00041dd0       ??0__non_rtti_object@std@@QAE@ABV01@@Z 10042dd0 f   LIBCMTD:stdexcpt.obj
 0001:00041e00       ??0__non_rtti_object@std@@QAE@PBD@Z 10042e00 f   LIBCMTD:stdexcpt.obj
 0001:00041e30       ??0bad_cast@std@@QAE@ABV01@@Z 10042e30 f   LIBCMTD:stdexcpt.obj
 0001:00041e60       ??0bad_cast@std@@QAE@PBD@Z 10042e60 f   LIBCMTD:stdexcpt.obj
 0001:00041e90       ??0bad_typeid@std@@QAE@ABV01@@Z 10042e90 f   LIBCMTD:stdexcpt.obj
 0001:00041ec0       ??0bad_typeid@std@@QAE@PBD@Z 10042ec0 f   LIBCMTD:stdexcpt.obj
 0001:00041ef0       ??0exception@std@@QAE@ABQBD@Z 10042ef0 f   LIBCMTD:stdexcpt.obj
 0001:00041f30       ??0exception@std@@QAE@ABQBDH@Z 10042f30 f   LIBCMTD:stdexcpt.obj
 0001:00041f60       ??0exception@std@@QAE@ABV01@@Z 10042f60 f   LIBCMTD:stdexcpt.obj
 0001:00041fa0       ??0exception@std@@QAE@XZ   10042fa0 f   LIBCMTD:stdexcpt.obj
 0001:00041fd0       ??1__non_rtti_object@std@@UAE@XZ 10042fd0 f   LIBCMTD:stdexcpt.obj
 0001:00041ff0       ??1bad_cast@std@@UAE@XZ    10042ff0 f   LIBCMTD:stdexcpt.obj
 0001:00042010       ??1bad_typeid@std@@UAE@XZ  10043010 f   LIBCMTD:stdexcpt.obj
 0001:00042030       ??1exception@std@@UAE@XZ   10043030 f   LIBCMTD:stdexcpt.obj
 0001:00042050       ??4exception@std@@QAEAAV01@ABV01@@Z 10043050 f   LIBCMTD:stdexcpt.obj
 0001:000420a0       ??_E__non_rtti_object@std@@UAEPAXI@Z 100430a0 f i LIBCMTD:stdexcpt.obj
 0001:000420a0       ??_G__non_rtti_object@std@@UAEPAXI@Z 100430a0 f i LIBCMTD:stdexcpt.obj
 0001:000420d0       ??_Gbad_cast@std@@UAEPAXI@Z 100430d0 f i LIBCMTD:stdexcpt.obj
 0001:000420d0       ??_Ebad_cast@std@@UAEPAXI@Z 100430d0 f i LIBCMTD:stdexcpt.obj
 0001:00042100       ??_Ebad_typeid@std@@UAEPAXI@Z 10043100 f i LIBCMTD:stdexcpt.obj
 0001:00042100       ??_Gbad_typeid@std@@UAEPAXI@Z 10043100 f i LIBCMTD:stdexcpt.obj
 0001:00042130       ??_Gexception@std@@UAEPAXI@Z 10043130 f i LIBCMTD:stdexcpt.obj
 0001:00042130       ??_Eexception@std@@UAEPAXI@Z 10043130 f i LIBCMTD:stdexcpt.obj
 0001:00042160       ?_Copy_str@exception@std@@AAEXPBD@Z 10043160 f   LIBCMTD:stdexcpt.obj
 0001:000421c0       ?_Tidy@exception@std@@AAEXXZ 100431c0 f   LIBCMTD:stdexcpt.obj
 0001:00042200       ?what@exception@std@@UBEPBDXZ 10043200 f   LIBCMTD:stdexcpt.obj
 0001:00042230       __CxxThrowException@8      10043230 f   LIBCMTD:throw.obj
 0001:000422c0       __wtoi                     100432c0 f   LIBCMTD:wtox.obj
 0001:000422e0       __wtoi64                   100432e0 f   LIBCMTD:wtox.obj
 0001:00042300       __wtoi64_l                 10043300 f   LIBCMTD:wtox.obj
 0001:00042320       __wtoi_l                   10043320 f   LIBCMTD:wtox.obj
 0001:00042340       __wtol                     10043340 f   LIBCMTD:wtox.obj
 0001:00042360       __wtol_l                   10043360 f   LIBCMTD:wtox.obj
 0001:00042380       _wcschr                    10043380 f   LIBCMTD:wcschr.obj
 0001:00042500       __wcsicmp                  10043500 f   LIBCMTD:wcsicmp.obj
 0001:000426d0       __wcsicmp_l                100436d0 f   LIBCMTD:wcsicmp.obj
 0001:00042940       __wcsnicmp                 10043940 f   LIBCMTD:wcsnicmp.obj
 0001:00042b30       __wcsnicmp_l               10043b30 f   LIBCMTD:wcsnicmp.obj
 0001:00042d90       ?_Name_base@type_info@@CAPBDPBV1@PAU__type_info_node@@@Z 10043d90 f   LIBCMTD:typname.obj
 0001:00042f40       ?_Name_base_internal@type_info@@CAPBDPBV1@PAU__type_info_node@@@Z 10043f40 f   LIBCMTD:typname.obj
 0001:00043100       ?_Type_info_dtor@type_info@@CAXPAV1@@Z 10044100 f   LIBCMTD:typname.obj
 0001:00043210       ?_Type_info_dtor_internal@type_info@@CAXPAV1@@Z 10044210 f   LIBCMTD:typname.obj
 0001:00043320       ___clean_type_info_names_internal 10044320 f   LIBCMTD:typname.obj
 0001:000433d0       ___unDNameHelper           100443d0 f   LIBCMTD:typname.obj
 0001:00043960       __wcstoi64                 10044960 f   LIBCMTD:wcstoq.obj
 0001:000439b0       __wcstoi64_l               100449b0 f   LIBCMTD:wcstoq.obj
 0001:000439d0       __wcstoui64                100449d0 f   LIBCMTD:wcstoq.obj
 0001:00043a20       __wcstoui64_l              10044a20 f   LIBCMTD:wcstoq.obj
 0001:00043a40       __towlower_l               10044a40 f   LIBCMTD:towlower.obj
 0001:00043b90       _towlower                  10044b90 f   LIBCMTD:towlower.obj
 0001:00043bb0       ??0Block@_HeapManager@@QAE@XZ 10044bb0 f i LIBCMTD:undname.obj
 0001:00043bd0       ??0DName@@QAE@AAPBDD@Z     10044bd0 f   LIBCMTD:undname.obj
 0001:00043e90       ??0DName@@QAE@ABV0@@Z      10044e90 f i LIBCMTD:undname.obj
 0001:00043eb0       ??0DName@@QAE@D@Z          10044eb0 f   LIBCMTD:undname.obj
 0001:00043f90       ??0DName@@QAE@PAV0@@Z      10044f90 f   LIBCMTD:undname.obj
 0001:000440d0       ??0DName@@QAE@PBD@Z        100450d0 f   LIBCMTD:undname.obj
 0001:000441c0       ??0DName@@QAE@W4DNameStatus@@@Z 100451c0 f   LIBCMTD:undname.obj
 0001:000442e0       ??0DName@@QAE@XZ           100452e0 f i LIBCMTD:undname.obj
 0001:000443a0       ??0DName@@QAE@_J@Z         100453a0 f   LIBCMTD:undname.obj
 0001:00044520       ??0DName@@QAE@_K@Z         10045520 f   LIBCMTD:undname.obj
 0001:00044660       ??0DNameNode@@IAE@XZ       10045660 f   LIBCMTD:undname.obj
 0001:00044680       ??0DNameStatusNode@@AAE@W4DNameStatus@@@Z 10045680 f   LIBCMTD:undname.obj
 0001:000446d0       ??0Replicator@@QAE@XZ      100456d0 f i LIBCMTD:undname.obj
 0001:000446f0       ??0UnDecorator@@QAE@PADPBDHP6APADJ@ZK@Z 100456f0 f i LIBCMTD:undname.obj
 0001:00044790       ??0charNode@@QAE@D@Z       10045790 f   LIBCMTD:undname.obj
 0001:000447c0       ??0pDNameNode@@QAE@PAVDName@@@Z 100457c0 f   LIBCMTD:undname.obj
 0001:00044820       ??0pairNode@@QAE@PAVDNameNode@@0@Z 10045820 f   LIBCMTD:undname.obj
 0001:00044860       ??0pcharNode@@QAE@PBDH@Z   10045860 f   LIBCMTD:undname.obj
 0001:00044900       ??2@YAPAXIAAV_HeapManager@@H@Z 10045900 f i LIBCMTD:undname.obj
 0001:00044920       ??4DName@@QAEAAV0@ABV0@@Z  10045920 f   LIBCMTD:undname.obj
 0001:00044940       ??4DName@@QAEAAV0@D@Z      10045940 f i LIBCMTD:undname.obj
 0001:00044a20       ??4DName@@QAEAAV0@PAV0@@Z  10045a20 f   LIBCMTD:undname.obj
 0001:00044b50       ??4DName@@QAEAAV0@PBD@Z    10045b50 f   LIBCMTD:undname.obj
 0001:00044c30       ??4DName@@QAEAAV0@W4DNameStatus@@@Z 10045c30 f   LIBCMTD:undname.obj
 0001:00044d30       ??AReplicator@@QBE?AVDName@@H@Z 10045d30 f   LIBCMTD:undname.obj
 0001:00044da0       ??BUnDecorator@@QAEPADXZ   10045da0 f i LIBCMTD:undname.obj
 0001:00045030       ??H@YA?AVDName@@DABV0@@Z   10046030 f i LIBCMTD:undname.obj
 0001:00045060       ??H@YA?AVDName@@PBDABV0@@Z 10046060 f i LIBCMTD:undname.obj
 0001:00045090       ??H@YA?AVDName@@W4DNameStatus@@ABV0@@Z 10046090 f i LIBCMTD:undname.obj
 0001:000450c0       ??HDName@@QBE?AV0@ABV0@@Z  100460c0 f   LIBCMTD:undname.obj
 0001:00045100       ??HDName@@QBE?AV0@D@Z      10046100 f   LIBCMTD:undname.obj
 0001:00045140       ??HDName@@QBE?AV0@PAV0@@Z  10046140 f   LIBCMTD:undname.obj
 0001:00045180       ??HDName@@QBE?AV0@PBD@Z    10046180 f   LIBCMTD:undname.obj
 0001:000451c0       ??HDName@@QBE?AV0@W4DNameStatus@@@Z 100461c0 f   LIBCMTD:undname.obj
 0001:00045200       ??YDName@@QAEAAV0@ABV0@@Z  10046200 f   LIBCMTD:undname.obj
 0001:00045270       ??YDName@@QAEAAV0@D@Z      10046270 f   LIBCMTD:undname.obj
 0001:000452f0       ??YDName@@QAEAAV0@PAV0@@Z  100462f0 f   LIBCMTD:undname.obj
 0001:000453a0       ??YDName@@QAEAAV0@PBD@Z    100463a0 f   LIBCMTD:undname.obj
 0001:00045440       ??YDName@@QAEAAV0@W4DNameStatus@@@Z 10046440 f   LIBCMTD:undname.obj
 0001:000454a0       ??YReplicator@@QAEAAV0@ABVDName@@@Z 100464a0 f   LIBCMTD:undname.obj
 0001:00045530       ??_5DName@@QAEAAV0@ABV0@@Z 10046530 f   LIBCMTD:undname.obj
 0001:00045590       ?Constructor@_HeapManager@@QAEXP6APAXI@ZP6AXPAX@Z@Z 10046590 f i LIBCMTD:undname.obj
 0001:000455d0       ?Destructor@_HeapManager@@QAEXXZ 100465d0 f i LIBCMTD:undname.obj
 0001:00045620       ?UScore@UnDecorator@@SAPBDW4Tokens@@@Z 10046620 f   LIBCMTD:undname.obj
 0001:00045650       ?append@DName@@AAEXPAVDNameNode@@@Z 10046650 f   LIBCMTD:undname.obj
 0001:000456e0       ?composeDeclaration@UnDecorator@@CA?AVDName@@ABV2@@Z 100466e0 f i LIBCMTD:undname.obj
 0001:00047360       ?dbGetString@DName@@QBEPADXZ 10048360 f   LIBCMTD:undname.obj
 0001:00047380       ?doAccessSpecifiers@UnDecorator@@SAHXZ 10048380 f i LIBCMTD:undname.obj
 0001:000473b0       ?doAllocationLanguage@UnDecorator@@SAHXZ 100483b0 f i LIBCMTD:undname.obj
 0001:000473e0       ?doAllocationModel@UnDecorator@@SAHXZ 100483e0 f i LIBCMTD:undname.obj
 0001:00047410       ?doEcsu@UnDecorator@@SAHXZ 10048410 f i LIBCMTD:undname.obj
 0001:00047440       ?doEllipsis@UnDecorator@@SAHXZ 10048440 f i LIBCMTD:undname.obj
 0001:00047470       ?doFunctionReturns@UnDecorator@@SAHXZ 10048470 f i LIBCMTD:undname.obj
 0001:000474a0       ?doMSKeywords@UnDecorator@@SAHXZ 100484a0 f i LIBCMTD:undname.obj
 0001:000474d0       ?doMemberTypes@UnDecorator@@SAHXZ 100484d0 f i LIBCMTD:undname.obj
 0001:00047500       ?doNameOnly@UnDecorator@@SAHXZ 10048500 f i LIBCMTD:undname.obj
 0001:00047510       ?doNoIdentCharCheck@UnDecorator@@SAHXZ 10048510 f i LIBCMTD:undname.obj
 0001:00047520       ?doPchar@DName@@AAEXPBDH@Z 10048520 f   LIBCMTD:undname.obj
 0001:00047660       ?doPtr64@UnDecorator@@SAHXZ 10048660 f i LIBCMTD:undname.obj
 0001:00047690       ?doRestrictionSpec@UnDecorator@@SAHXZ 10048690 f i LIBCMTD:undname.obj
 0001:000476c0       ?doThisTypes@UnDecorator@@SAHXZ 100486c0 f i LIBCMTD:undname.obj
 0001:000476f0       ?doThrowTypes@UnDecorator@@SAHXZ 100486f0 f i LIBCMTD:undname.obj
 0001:00047720       ?doTypeOnly@UnDecorator@@SAHXZ 10048720 f i LIBCMTD:undname.obj
 0001:00047730       ?doUnderScore@UnDecorator@@SAHXZ 10048730 f i LIBCMTD:undname.obj
 0001:00047760       ?getArgumentList@UnDecorator@@CA?AVDName@@XZ 10048760 f   LIBCMTD:undname.obj
 0001:000478b0       ?getArgumentTypes@UnDecorator@@CA?AVDName@@XZ 100488b0 f   LIBCMTD:undname.obj
 0001:00047a10       ?getArrayType@UnDecorator@@CA?AVDName@@ABV2@@Z 10048a10 f i LIBCMTD:undname.obj
 0001:00047c50       ?getBasedType@UnDecorator@@CA?AVDName@@XZ 10048c50 f   LIBCMTD:undname.obj
 0001:00047d10       ?getBasicDataType@UnDecorator@@CA?AVDName@@ABV2@@Z 10048d10 f   LIBCMTD:undname.obj
 0001:000482d0       ?getCallIndex@UnDecorator@@CA?AVDName@@XZ 100492d0 f i LIBCMTD:undname.obj
 0001:000482f0       ?getCallingConvention@UnDecorator@@CA?AVDName@@XZ 100492f0 f   LIBCMTD:undname.obj
 0001:00048460       ?getDataIndirectType@UnDecorator@@CA?AVDName@@ABV2@PBD0H@Z 10049460 f   LIBCMTD:undname.obj
 0001:00048b70       ?getDataIndirectType@UnDecorator@@CA?AVDName@@XZ 10049b70 f i LIBCMTD:undname.obj
 0001:00048bb0       ?getDataType@UnDecorator@@CA?AVDName@@PAV2@@Z 10049bb0 f   LIBCMTD:undname.obj
 0001:00048cd0       ?getDecoratedName@UnDecorator@@CA?AVDName@@XZ 10049cd0 f   LIBCMTD:undname.obj
 0001:00049000       ?getDimension@UnDecorator@@CA?AVDName@@_N@Z 1004a000 f   LIBCMTD:undname.obj
 0001:000492b0       ?getDispatchTarget@UnDecorator@@CA?AVDName@@XZ 1004a2b0 f   LIBCMTD:undname.obj
 0001:00049350       ?getDisplacement@UnDecorator@@CA?AVDName@@XZ 1004a350 f i LIBCMTD:undname.obj
 0001:00049370       ?getECSUDataType@UnDecorator@@CA?AVDName@@XZ 1004a370 f   LIBCMTD:undname.obj
 0001:00049540       ?getECSUName@UnDecorator@@CA?AVDName@@XZ 1004a540 f i LIBCMTD:undname.obj
 0001:00049560       ?getEnumType@UnDecorator@@CA?AVDName@@XZ 1004a560 f i LIBCMTD:undname.obj
 0001:000496b0       ?getExtendedDataIndirectType@UnDecorator@@CA?AVDName@@AAPBDAA_NH@Z 1004a6b0 f   LIBCMTD:undname.obj
 0001:00049900       ?getExternalDataType@UnDecorator@@CA?AVDName@@ABV2@@Z 1004a900 f i LIBCMTD:undname.obj
 0001:00049990       ?getFunctionIndirectType@UnDecorator@@CA?AVDName@@ABV2@@Z 1004a990 f   LIBCMTD:undname.obj
 0001:00049e00       ?getGuardNumber@UnDecorator@@CA?AVDName@@XZ 1004ae00 f i LIBCMTD:undname.obj
 0001:00049e20       ?getLastChar@DName@@QBEDXZ 1004ae20 f i LIBCMTD:undname.obj
 0001:00049e50       ?getLastChar@DNameStatusNode@@UBEDXZ 1004ae50 f i LIBCMTD:undname.obj
 0001:00049e80       ?getLastChar@charNode@@UBEDXZ 1004ae80 f i LIBCMTD:undname.obj
 0001:00049ea0       ?getLastChar@pDNameNode@@UBEDXZ 1004aea0 f i LIBCMTD:undname.obj
 0001:00049ed0       ?getLastChar@pairNode@@UBEDXZ 1004aed0 f i LIBCMTD:undname.obj
 0001:00049f20       ?getLastChar@pcharNode@@UBEDXZ 1004af20 f i LIBCMTD:undname.obj
 0001:00049f60       ?getLexicalFrame@UnDecorator@@CA?AVDName@@XZ 1004af60 f i LIBCMTD:undname.obj
 0001:00049fa0       ?getMemory@_HeapManager@@QAEPAXIH@Z 1004afa0 f   LIBCMTD:undname.obj
 0001:0004a0b0       ?getNumberOfDimensions@UnDecorator@@CAHXZ 1004b0b0 f   LIBCMTD:undname.obj
 0001:0004a1b0       ?getOperatorName@UnDecorator@@CA?AVDName@@_NPA_N@Z 1004b1b0 f i LIBCMTD:undname.obj
 0001:0004ab40       ?getPointerType@UnDecorator@@CA?AVDName@@ABV2@0@Z 1004bb40 f i LIBCMTD:undname.obj
 0001:0004ab70       ?getPointerTypeArray@UnDecorator@@CA?AVDName@@ABV2@0@Z 1004bb70 f i LIBCMTD:undname.obj
 0001:0004aba0       ?getPrimaryDataType@UnDecorator@@CA?AVDName@@ABV2@@Z 1004bba0 f   LIBCMTD:undname.obj
 0001:0004af40       ?getPtrRefDataType@UnDecorator@@CA?AVDName@@ABV2@H@Z 1004bf40 f i LIBCMTD:undname.obj
 0001:0004b080       ?getPtrRefType@UnDecorator@@CA?AVDName@@ABV2@0PBD@Z 1004c080 f   LIBCMTD:undname.obj
 0001:0004b1f0       ?getReferenceType@UnDecorator@@CA?AVDName@@ABV2@0PBD@Z 1004c1f0 f i LIBCMTD:undname.obj
 0001:0004b210       ?getRestrictionSpec@UnDecorator@@CA?AVDName@@XZ 1004c210 f   LIBCMTD:undname.obj
 0001:0004b360       ?getReturnType@UnDecorator@@CA?AVDName@@PAV2@@Z 1004c360 f   LIBCMTD:undname.obj
 0001:0004b3b0       ?getScope@UnDecorator@@CA?AVDName@@XZ 1004c3b0 f   LIBCMTD:undname.obj
 0001:0004b8a0       ?getScopedName@UnDecorator@@CA?AVDName@@XZ 1004c8a0 f   LIBCMTD:undname.obj
 0001:0004b9c0       ?getSignedDimension@UnDecorator@@CA?AVDName@@XZ 1004c9c0 f   LIBCMTD:undname.obj
 0001:0004ba40       ?getStorageConvention@UnDecorator@@CA?AVDName@@XZ 1004ca40 f i LIBCMTD:undname.obj
 0001:0004ba60       ?getString@DName@@QBEPADPAD0@Z 1004ca60 f i LIBCMTD:undname.obj
 0001:0004baa0       ?getString@DName@@QBEPADPADH@Z 1004caa0 f i LIBCMTD:undname.obj
 0001:0004bb30       ?getString@DNameStatusNode@@UBEPADPAD0@Z 1004cb30 f i LIBCMTD:undname.obj
 0001:0004bb70       ?getString@charNode@@UBEPADPAD0@Z 1004cb70 f i LIBCMTD:undname.obj
 0001:0004bba0       ?getString@pDNameNode@@UBEPADPAD0@Z 1004cba0 f i LIBCMTD:undname.obj
 0001:0004bbe0       ?getString@pairNode@@UBEPADPAD0@Z 1004cbe0 f i LIBCMTD:undname.obj
 0001:0004bc40       ?getString@pcharNode@@UBEPADPAD0@Z 1004cc40 f i LIBCMTD:undname.obj
 0001:0004bc70       ?getStringEncoding@UnDecorator@@CA?AVDName@@PADH@Z 1004cc70 f   LIBCMTD:undname.obj
 0001:0004bd80       ?getStringHelper@@YAPADPAD00H@Z 1004cd80 f i LIBCMTD:undname.obj
 0001:0004bdc0       ?getSymbolName@UnDecorator@@CA?AVDName@@XZ 1004cdc0 f i LIBCMTD:undname.obj
 0001:0004be60       ?getTemplateArgumentList@UnDecorator@@CA?AVDName@@XZ 1004ce60 f   LIBCMTD:undname.obj
 0001:0004c0e0       ?getTemplateConstant@UnDecorator@@CA?AVDName@@XZ 1004d0e0 f   LIBCMTD:undname.obj
 0001:0004c5b0       ?getTemplateName@UnDecorator@@CA?AVDName@@_N@Z 1004d5b0 f   LIBCMTD:undname.obj
 0001:0004c780       ?getThisType@UnDecorator@@CA?AVDName@@XZ 1004d780 f i LIBCMTD:undname.obj
 0001:0004c7c0       ?getThrowTypes@UnDecorator@@CA?AVDName@@XZ 1004d7c0 f   LIBCMTD:undname.obj
 0001:0004c870       ?getTypeEncoding@UnDecorator@@CAHXZ 1004d870 f i LIBCMTD:undname.obj
 0001:0004d2b0       ?getVCallThunkType@UnDecorator@@CA?AVDName@@XZ 1004e2b0 f i LIBCMTD:undname.obj
 0001:0004d310       ?getVbTableType@UnDecorator@@CA?AVDName@@ABV2@@Z 1004e310 f i LIBCMTD:undname.obj
 0001:0004d330       ?getVdispMapType@UnDecorator@@CA?AVDName@@ABV2@@Z 1004e330 f i LIBCMTD:undname.obj
 0001:0004d3a0       ?getVfTableType@UnDecorator@@CA?AVDName@@ABV2@@Z 1004e3a0 f i LIBCMTD:undname.obj
 0001:0004d560       ?getZName@UnDecorator@@CA?AVDName@@_N0@Z 1004e560 f   LIBCMTD:undname.obj
 0001:0004d810       ?haveTemplateParameters@UnDecorator@@SAHXZ 1004e810 f i LIBCMTD:undname.obj
 0001:0004d820       ?isArray@DName@@QBEHXZ     1004e820 f i LIBCMTD:undname.obj
 0001:0004d840       ?isComArray@DName@@QBEHXZ  1004e840 f i LIBCMTD:undname.obj
 0001:0004d860       ?isEmpty@DName@@QBEHXZ     1004e860 f i LIBCMTD:undname.obj
 0001:0004d890       ?isFull@Replicator@@QBEHXZ 1004e890 f i LIBCMTD:undname.obj
 0001:0004d8c0       ?isNoTE@DName@@QBEHXZ      1004e8c0 f i LIBCMTD:undname.obj
 0001:0004d8e0       ?isPinPtr@DName@@QBEHXZ    1004e8e0 f i LIBCMTD:undname.obj
 0001:0004d900       ?isPtrRef@DName@@QBEHXZ    1004e900 f i LIBCMTD:undname.obj
 0001:0004d920       ?isUDC@DName@@QBEHXZ       1004e920 f i LIBCMTD:undname.obj
 0001:0004d960       ?isUDTThunk@DName@@QBEHXZ  1004e960 f i LIBCMTD:undname.obj
 0001:0004d9a0       ?isVCallThunk@DName@@QBEHXZ 1004e9a0 f i LIBCMTD:undname.obj
 0001:0004d9c0       ?isValid@DName@@QBEHXZ     1004e9c0 f i LIBCMTD:undname.obj
 0001:0004da00       ?length@DName@@QBEHXZ      1004ea00 f i LIBCMTD:undname.obj
 0001:0004da30       ?length@DNameStatusNode@@UBEHXZ 1004ea30 f i LIBCMTD:undname.obj
 0001:0004da50       ?length@charNode@@UBEHXZ   1004ea50 f i LIBCMTD:undname.obj
 0001:0004da60       ?length@pDNameNode@@UBEHXZ 1004ea60 f i LIBCMTD:undname.obj
 0001:0004da90       ?length@pairNode@@UBEHXZ   1004ea90 f i LIBCMTD:undname.obj
 0001:0004dae0       ?length@pcharNode@@UBEHXZ  1004eae0 f i LIBCMTD:undname.obj
 0001:0004db00       ?make@DNameStatusNode@@SAPAV1@W4DNameStatus@@@Z 1004eb00 f i LIBCMTD:undname.obj
 0001:0004dbb0       ?setIsArray@DName@@QAEXXZ  1004ebb0 f i LIBCMTD:undname.obj
 0001:0004dbd0       ?setIsComArray@DName@@QAEXXZ 1004ebd0 f i LIBCMTD:undname.obj
 0001:0004dbf0       ?setIsNoTE@DName@@QAEXXZ   1004ebf0 f i LIBCMTD:undname.obj
 0001:0004dc10       ?setIsPinPtr@DName@@QAEXXZ 1004ec10 f i LIBCMTD:undname.obj
 0001:0004dc30       ?setIsUDC@DName@@QAEXXZ    1004ec30 f i LIBCMTD:undname.obj
 0001:0004dc60       ?setIsVCallThunk@DName@@QAEXXZ 1004ec60 f i LIBCMTD:undname.obj
 0001:0004dc80       ?setPtrRef@DName@@QAEAAV1@XZ 1004ec80 f i LIBCMTD:undname.obj
 0001:0004dca0       ?status@DName@@QBE?AW4DNameStatus@@XZ 1004eca0 f i LIBCMTD:undname.obj
 0001:0004dda0       ___unDName                 1004eda0 f   LIBCMTD:undname.obj
 0001:0004de70       ___unDNameEx               1004ee70 f   LIBCMTD:undname.obj
 0001:0004df50       __allmul                   1004ef50 f   LIBCMTD:llmul.obj
 0001:0004df90       ___crtLCMapStringW         1004ef90 f   LIBCMTD:w_map.obj
 0001:0004dfd0       __get_purecall_handler     1004efd0 f   LIBCMTD:purevirt.obj
 0001:0004dff0       __purecall                 1004eff0 f   LIBCMTD:purevirt.obj
 0001:0004e030       __set_purecall_handler     1004f030 f   LIBCMTD:purevirt.obj
 0001:0004e060       __atoi64                   1004f060 f   LIBCMTD:atox.obj
 0001:0004e080       __atoi64_l                 1004f080 f   LIBCMTD:atox.obj
 0001:0004e0a0       __atoi_l                   1004f0a0 f   LIBCMTD:atox.obj
 0001:0004e0c0       __atol_l                   1004f0c0 f   LIBCMTD:atox.obj
 0001:0004e0e0       _atoi                      1004f0e0 f   LIBCMTD:atox.obj
 0001:0004e100       _atol                      1004f100 f   LIBCMTD:atox.obj
 0001:0004e650       __strtoi64                 1004f650 f   LIBCMTD:strtoq.obj
 0001:0004e6a0       __strtoi64_l               1004f6a0 f   LIBCMTD:strtoq.obj
 0001:0004e6c0       __strtoui64                1004f6c0 f   LIBCMTD:strtoq.obj
 0001:0004e710       __strtoui64_l              1004f710 f   LIBCMTD:strtoq.obj
 0001:0004e730       _GetStdHandle@4            1004f730 f   kernel32:KERNEL32.dll
 0001:0004e736       _GetFileType@4             1004f736 f   kernel32:KERNEL32.dll
 0001:0004e73c       _GetModuleFileNameW@12     1004f73c f   kernel32:KERNEL32.dll
 0001:0004e742       _GetModuleHandleExW@12     1004f742 f   kernel32:KERNEL32.dll
 0001:0004e748       _WriteConsoleW@20          1004f748 f   kernel32:KERNEL32.dll
 0001:0004e74e       _EnterCriticalSection@4    1004f74e f   kernel32:KERNEL32.dll
 0001:0004e754       _LeaveCriticalSection@4    1004f754 f   kernel32:KERNEL32.dll
 0001:0004e75a       _IsDebuggerPresent@0       1004f75a f   kernel32:KERNEL32.dll
 0001:0004e760       _RaiseException@16         1004f760 f   kernel32:KERNEL32.dll
 0001:0004e766       _GetProcAddress@8          1004f766 f   kernel32:KERNEL32.dll
 0001:0004e76c       _LoadLibraryExW@12         1004f76c f   kernel32:KERNEL32.dll
 0001:0004e772       _lstrlenA@4                1004f772 f   kernel32:KERNEL32.dll
 0001:0004e778       _LoadLibraryW@4            1004f778 f   kernel32:KERNEL32.dll
 0001:0004e77e       _MultiByteToWideChar@24    1004f77e f   kernel32:KERNEL32.dll
 0001:0004e784       _WideCharToMultiByte@32    1004f784 f   kernel32:KERNEL32.dll
 0001:0004e78a       _IsProcessorFeaturePresent@4 1004f78a f   kernel32:KERNEL32.dll
 0001:0004e790       _GetCommandLineA@0         1004f790 f   kernel32:KERNEL32.dll
 0001:0004e796       _GetCurrentThreadId@0      1004f796 f   kernel32:KERNEL32.dll
 0001:0004e79c       _EncodePointer@4           1004f79c f   kernel32:KERNEL32.dll
 0001:0004e7a2       _DecodePointer@4           1004f7a2 f   kernel32:KERNEL32.dll
 0001:0004e7a8       _InterlockedDecrement@4    1004f7a8 f   kernel32:KERNEL32.dll
 0001:0004e7ae       _ExitProcess@4             1004f7ae f   kernel32:KERNEL32.dll
 0001:0004e7b4       _AreFileApisANSI@0         1004f7b4 f   kernel32:KERNEL32.dll
 0001:0004e7ba       _SetConsoleCtrlHandler@8   1004f7ba f   kernel32:KERNEL32.dll
 0001:0004e7c0       _OutputDebugStringW@4      1004f7c0 f   kernel32:KERNEL32.dll
 0001:0004e7c6       _WaitForSingleObjectEx@12  1004f7c6 f   kernel32:KERNEL32.dll
 0001:0004e7cc       _CreateThread@24           1004f7cc f   kernel32:KERNEL32.dll
 0001:0004e7d2       _DeleteCriticalSection@4   1004f7d2 f   kernel32:KERNEL32.dll
 0001:0004e7d8       _InitializeCriticalSectionAndSpinCount@8 1004f7d8 f   kernel32:KERNEL32.dll
 0001:0004e7de       _FatalAppExitA@8           1004f7de f   kernel32:KERNEL32.dll
 0001:0004e7e4       _HeapValidate@12           1004f7e4 f   kernel32:KERNEL32.dll
 0001:0004e7ea       _GetSystemInfo@4           1004f7ea f   kernel32:KERNEL32.dll
 0001:0004e7f0       _InitOnceExecuteOnce@16    1004f7f0 f   kernel32:KERNEL32.dll
 0001:0004e7f6       _GetStartupInfoW@4         1004f7f6 f   kernel32:KERNEL32.dll
 0001:0004e7fc       _SetLastError@4            1004f7fc f   kernel32:KERNEL32.dll
 0001:0004e802       _InterlockedIncrement@4    1004f802 f   kernel32:KERNEL32.dll
 0001:0004e808       _GetCurrentThread@0        1004f808 f   kernel32:KERNEL32.dll
 0001:0004e80e       _SetStdHandle@8            1004f80e f   kernel32:KERNEL32.dll
 0001:0004e814       _GetConsoleCP@0            1004f814 f   kernel32:KERNEL32.dll
 0001:0004e81a       _GetConsoleMode@8          1004f81a f   kernel32:KERNEL32.dll
 0001:0004e820       _HeapAlloc@12              1004f820 f   kernel32:KERNEL32.dll
 0001:0004e826       _HeapFree@12               1004f826 f   kernel32:KERNEL32.dll
 0001:0004e82c       _GetProcessHeap@0          1004f82c f   kernel32:KERNEL32.dll
 0001:0004e832       _VirtualQuery@12           1004f832 f   kernel32:KERNEL32.dll
 0001:0004e838       _FreeLibrary@4             1004f838 f   kernel32:KERNEL32.dll
 0001:0004e83e       _GetModuleHandleW@4        1004f83e f   kernel32:KERNEL32.dll
 0001:0004e844       _UnhandledExceptionFilter@4 1004f844 f   kernel32:KERNEL32.dll
 0001:0004e84a       _SetUnhandledExceptionFilter@4 1004f84a f   kernel32:KERNEL32.dll
 0001:0004e850       _FlsAlloc@4                1004f850 f   kernel32:KERNEL32.dll
 0001:0004e856       _FlsGetValue@4             1004f856 f   kernel32:KERNEL32.dll
 0001:0004e85c       _FlsSetValue@8             1004f85c f   kernel32:KERNEL32.dll
 0001:0004e862       _FlsFree@4                 1004f862 f   kernel32:KERNEL32.dll
 0001:0004e868       _GetCurrentProcess@0       1004f868 f   kernel32:KERNEL32.dll
 0001:0004e86e       _TerminateProcess@8        1004f86e f   kernel32:KERNEL32.dll
 0001:0004e874       _GetModuleFileNameA@12     1004f874 f   kernel32:KERNEL32.dll
 0001:0004e87a       _QueryPerformanceCounter@4 1004f87a f   kernel32:KERNEL32.dll
 0001:0004e880       _GetSystemTimeAsFileTime@4 1004f880 f   kernel32:KERNEL32.dll
 0001:0004e886       _GetTickCount64@0          1004f886 f   kernel32:KERNEL32.dll
 0001:0004e88c       _GetEnvironmentStringsW@0  1004f88c f   kernel32:KERNEL32.dll
 0001:0004e892       _FreeEnvironmentStringsW@4 1004f892 f   kernel32:KERNEL32.dll
 0001:0004e898       _InterlockedExchange@8     1004f898 f   kernel32:KERNEL32.dll
 0001:0004e89e       _IsValidCodePage@4         1004f89e f   kernel32:KERNEL32.dll
 0001:0004e8a4       _GetACP@0                  1004f8a4 f   kernel32:KERNEL32.dll
 0001:0004e8aa       _GetOEMCP@0                1004f8aa f   kernel32:KERNEL32.dll
 0001:0004e8b0       _GetCPInfo@8               1004f8b0 f   kernel32:KERNEL32.dll
 0001:0004e8b6       _FlushFileBuffers@4        1004f8b6 f   kernel32:KERNEL32.dll
 0001:0004e8bc       _HeapReAlloc@16            1004f8bc f   kernel32:KERNEL32.dll
 0001:0004e8c2       _HeapSize@12               1004f8c2 f   kernel32:KERNEL32.dll
 0001:0004e8c8       _HeapQueryInformation@20   1004f8c8 f   kernel32:KERNEL32.dll
 0001:0004e8ce       _OutputDebugStringA@4      1004f8ce f   kernel32:KERNEL32.dll
 0001:0004e8d4       _RtlUnwind@16              1004f8d4 f   kernel32:KERNEL32.dll
 0001:0004e8da       _SetFilePointerEx@20       1004f8da f   kernel32:KERNEL32.dll
 0001:0004e8e0       _GetTimeFormatEx@24        1004f8e0 f   kernel32:KERNEL32.dll
 0001:0004e8e6       _GetDateFormatEx@28        1004f8e6 f   kernel32:KERNEL32.dll
 0001:0004e8ec       _CompareStringEx@36        1004f8ec f   kernel32:KERNEL32.dll
 0001:0004e8f2       _GetLocaleInfoEx@16        1004f8f2 f   kernel32:KERNEL32.dll
 0001:0004e8f8       _GetUserDefaultLocaleName@8 1004f8f8 f   kernel32:KERNEL32.dll
 0001:0004e8fe       _LCMapStringEx@36          1004f8fe f   kernel32:KERNEL32.dll
 0001:0004e904       _IsValidLocaleName@4       1004f904 f   kernel32:KERNEL32.dll
 0001:0004e90a       _EnumSystemLocalesEx@16    1004f90a f   kernel32:KERNEL32.dll
 0001:0004e910       _GetStringTypeW@16         1004f910 f   kernel32:KERNEL32.dll
 0001:0004e916       _CreateFileW@28            1004f916 f   kernel32:KERNEL32.dll
 0002:00000000       __imp__OutputDebugStringW@4 10050000     kernel32:KERNEL32.dll
 0002:00000004       __imp__GetStringTypeW@16   10050004     kernel32:KERNEL32.dll
 0002:00000008       __imp__EnumSystemLocalesEx@16 10050008     kernel32:KERNEL32.dll
 0002:0000000c       __imp__IsValidLocaleName@4 1005000c     kernel32:KERNEL32.dll
 0002:00000010       __imp__LCMapStringEx@36    10050010     kernel32:KERNEL32.dll
 0002:00000014       __imp__GetUserDefaultLocaleName@8 10050014     kernel32:KERNEL32.dll
 0002:00000018       __imp__GetLocaleInfoEx@16  10050018     kernel32:KERNEL32.dll
 0002:0000001c       __imp__CompareStringEx@36  1005001c     kernel32:KERNEL32.dll
 0002:00000020       __imp__GetDateFormatEx@28  10050020     kernel32:KERNEL32.dll
 0002:00000024       __imp__GetTimeFormatEx@24  10050024     kernel32:KERNEL32.dll
 0002:00000028       __imp__SetFilePointerEx@20 10050028     kernel32:KERNEL32.dll
 0002:0000002c       __imp__RtlUnwind@16        1005002c     kernel32:KERNEL32.dll
 0002:00000030       __imp__OutputDebugStringA@4 10050030     kernel32:KERNEL32.dll
 0002:00000034       __imp__HeapQueryInformation@20 10050034     kernel32:KERNEL32.dll
 0002:00000038       __imp__HeapSize@12         10050038     kernel32:KERNEL32.dll
 0002:0000003c       __imp__HeapReAlloc@16      1005003c     kernel32:KERNEL32.dll
 0002:00000040       __imp__FlushFileBuffers@4  10050040     kernel32:KERNEL32.dll
 0002:00000044       __imp__GetCPInfo@8         10050044     kernel32:KERNEL32.dll
 0002:00000048       __imp__GetOEMCP@0          10050048     kernel32:KERNEL32.dll
 0002:0000004c       __imp__GetACP@0            1005004c     kernel32:KERNEL32.dll
 0002:00000050       __imp__IsValidCodePage@4   10050050     kernel32:KERNEL32.dll
 0002:00000054       __imp__InterlockedExchange@8 10050054     kernel32:KERNEL32.dll
 0002:00000058       __imp__CreateFileA@28      10050058     kernel32:KERNEL32.dll
 0002:0000005c       __imp__ReadFile@20         1005005c     kernel32:KERNEL32.dll
 0002:00000060       __imp__WriteFile@20        10050060     kernel32:KERNEL32.dll
 0002:00000064       __imp__CloseHandle@4       10050064     kernel32:KERNEL32.dll
 0002:00000068       __imp__GetLastError@0      10050068     kernel32:KERNEL32.dll
 0002:0000006c       __imp__GetCommState@8      1005006c     kernel32:KERNEL32.dll
 0002:00000070       __imp__PurgeComm@8         10050070     kernel32:KERNEL32.dll
 0002:00000074       __imp__SetCommState@8      10050074     kernel32:KERNEL32.dll
 0002:00000078       __imp__SetCommTimeouts@8   10050078     kernel32:KERNEL32.dll
 0002:0000007c       __imp__FormatMessageA@28   1005007c     kernel32:KERNEL32.dll
 0002:00000080       __imp__Sleep@4             10050080     kernel32:KERNEL32.dll
 0002:00000084       __imp__GetStdHandle@4      10050084     kernel32:KERNEL32.dll
 0002:00000088       __imp__GetFileType@4       10050088     kernel32:KERNEL32.dll
 0002:0000008c       __imp__GetModuleFileNameW@12 1005008c     kernel32:KERNEL32.dll
 0002:00000090       __imp__GetModuleHandleExW@12 10050090     kernel32:KERNEL32.dll
 0002:00000094       __imp__WriteConsoleW@20    10050094     kernel32:KERNEL32.dll
 0002:00000098       __imp__EnterCriticalSection@4 10050098     kernel32:KERNEL32.dll
 0002:0000009c       __imp__LeaveCriticalSection@4 1005009c     kernel32:KERNEL32.dll
 0002:000000a0       __imp__IsDebuggerPresent@0 100500a0     kernel32:KERNEL32.dll
 0002:000000a4       __imp__RaiseException@16   100500a4     kernel32:KERNEL32.dll
 0002:000000a8       __imp__GetProcAddress@8    100500a8     kernel32:KERNEL32.dll
 0002:000000ac       __imp__LoadLibraryExW@12   100500ac     kernel32:KERNEL32.dll
 0002:000000b0       __imp__lstrlenA@4          100500b0     kernel32:KERNEL32.dll
 0002:000000b4       __imp__LoadLibraryW@4      100500b4     kernel32:KERNEL32.dll
 0002:000000b8       __imp__MultiByteToWideChar@24 100500b8     kernel32:KERNEL32.dll
 0002:000000bc       __imp__WideCharToMultiByte@32 100500bc     kernel32:KERNEL32.dll
 0002:000000c0       __imp__IsProcessorFeaturePresent@4 100500c0     kernel32:KERNEL32.dll
 0002:000000c4       __imp__GetCommandLineA@0   100500c4     kernel32:KERNEL32.dll
 0002:000000c8       __imp__GetCurrentThreadId@0 100500c8     kernel32:KERNEL32.dll
 0002:000000cc       __imp__EncodePointer@4     100500cc     kernel32:KERNEL32.dll
 0002:000000d0       __imp__DecodePointer@4     100500d0     kernel32:KERNEL32.dll
 0002:000000d4       __imp__InterlockedDecrement@4 100500d4     kernel32:KERNEL32.dll
 0002:000000d8       __imp__ExitProcess@4       100500d8     kernel32:KERNEL32.dll
 0002:000000dc       __imp__AreFileApisANSI@0   100500dc     kernel32:KERNEL32.dll
 0002:000000e0       __imp__SetConsoleCtrlHandler@8 100500e0     kernel32:KERNEL32.dll
 0002:000000e4       __imp__CreateFileW@28      100500e4     kernel32:KERNEL32.dll
 0002:000000e8       __imp__WaitForSingleObjectEx@12 100500e8     kernel32:KERNEL32.dll
 0002:000000ec       __imp__CreateThread@24     100500ec     kernel32:KERNEL32.dll
 0002:000000f0       __imp__DeleteCriticalSection@4 100500f0     kernel32:KERNEL32.dll
 0002:000000f4       __imp__InitializeCriticalSectionAndSpinCount@8 100500f4     kernel32:KERNEL32.dll
 0002:000000f8       __imp__FatalAppExitA@8     100500f8     kernel32:KERNEL32.dll
 0002:000000fc       __imp__HeapValidate@12     100500fc     kernel32:KERNEL32.dll
 0002:00000100       __imp__GetSystemInfo@4     10050100     kernel32:KERNEL32.dll
 0002:00000104       __imp__InitOnceExecuteOnce@16 10050104     kernel32:KERNEL32.dll
 0002:00000108       __imp__GetStartupInfoW@4   10050108     kernel32:KERNEL32.dll
 0002:0000010c       __imp__SetLastError@4      1005010c     kernel32:KERNEL32.dll
 0002:00000110       __imp__InterlockedIncrement@4 10050110     kernel32:KERNEL32.dll
 0002:00000114       __imp__GetCurrentThread@0  10050114     kernel32:KERNEL32.dll
 0002:00000118       __imp__SetStdHandle@8      10050118     kernel32:KERNEL32.dll
 0002:0000011c       __imp__GetConsoleCP@0      1005011c     kernel32:KERNEL32.dll
 0002:00000120       __imp__GetConsoleMode@8    10050120     kernel32:KERNEL32.dll
 0002:00000124       __imp__HeapAlloc@12        10050124     kernel32:KERNEL32.dll
 0002:00000128       __imp__HeapFree@12         10050128     kernel32:KERNEL32.dll
 0002:0000012c       __imp__GetProcessHeap@0    1005012c     kernel32:KERNEL32.dll
 0002:00000130       __imp__VirtualQuery@12     10050130     kernel32:KERNEL32.dll
 0002:00000134       __imp__FreeLibrary@4       10050134     kernel32:KERNEL32.dll
 0002:00000138       __imp__GetModuleHandleW@4  10050138     kernel32:KERNEL32.dll
 0002:0000013c       __imp__UnhandledExceptionFilter@4 1005013c     kernel32:KERNEL32.dll
 0002:00000140       __imp__SetUnhandledExceptionFilter@4 10050140     kernel32:KERNEL32.dll
 0002:00000144       __imp__FlsAlloc@4          10050144     kernel32:KERNEL32.dll
 0002:00000148       __imp__FlsGetValue@4       10050148     kernel32:KERNEL32.dll
 0002:0000014c       __imp__FlsSetValue@8       1005014c     kernel32:KERNEL32.dll
 0002:00000150       __imp__FlsFree@4           10050150     kernel32:KERNEL32.dll
 0002:00000154       __imp__GetCurrentProcess@0 10050154     kernel32:KERNEL32.dll
 0002:00000158       __imp__TerminateProcess@8  10050158     kernel32:KERNEL32.dll
 0002:0000015c       __imp__GetModuleFileNameA@12 1005015c     kernel32:KERNEL32.dll
 0002:00000160       __imp__QueryPerformanceCounter@4 10050160     kernel32:KERNEL32.dll
 0002:00000164       __imp__GetSystemTimeAsFileTime@4 10050164     kernel32:KERNEL32.dll
 0002:00000168       __imp__GetTickCount64@0    10050168     kernel32:KERNEL32.dll
 0002:0000016c       __imp__GetEnvironmentStringsW@0 1005016c     kernel32:KERNEL32.dll
 0002:00000170       __imp__FreeEnvironmentStringsW@4 10050170     kernel32:KERNEL32.dll
 0002:00000174       \177KERNEL32_NULL_THUNK_DATA 10050174     kernel32:KERNEL32.dll
 0002:00000178       __imp__freeaddrinfo@4      10050178     ws2_32:WS2_32.dll
 0002:0000017c       __imp__getaddrinfo@16      1005017c     ws2_32:WS2_32.dll
 0002:00000180       __imp__WSAGetLastError@0   10050180     ws2_32:WS2_32.dll
 0002:00000184       __imp__WSAStartup@8        10050184     ws2_32:WS2_32.dll
 0002:00000188       __imp__socket@12           10050188     ws2_32:WS2_32.dll
 0002:0000018c       __imp__shutdown@8          1005018c     ws2_32:WS2_32.dll
 0002:00000190       __imp__setsockopt@20       10050190     ws2_32:WS2_32.dll
 0002:00000194       __imp__send@16             10050194     ws2_32:WS2_32.dll
 0002:00000198       __imp__select@20           10050198     ws2_32:WS2_32.dll
 0002:0000019c       __imp__recv@16             1005019c     ws2_32:WS2_32.dll
 0002:000001a0       __imp__listen@8            100501a0     ws2_32:WS2_32.dll
 0002:000001a4       __imp__inet_ntoa@4         100501a4     ws2_32:WS2_32.dll
 0002:000001a8       __imp__inet_addr@4         100501a8     ws2_32:WS2_32.dll
 0002:000001ac       __imp__htons@4             100501ac     ws2_32:WS2_32.dll
 0002:000001b0       __imp__htonl@4             100501b0     ws2_32:WS2_32.dll
 0002:000001b4       __imp__getsockopt@20       100501b4     ws2_32:WS2_32.dll
 0002:000001b8       __imp__ioctlsocket@12      100501b8     ws2_32:WS2_32.dll
 0002:000001bc       __imp__connect@12          100501bc     ws2_32:WS2_32.dll
 0002:000001c0       __imp__closesocket@4       100501c0     ws2_32:WS2_32.dll
 0002:000001c4       __imp__bind@12             100501c4     ws2_32:WS2_32.dll
 0002:000001c8       __imp__accept@12           100501c8     ws2_32:WS2_32.dll
 0002:000001cc       \177WS2_32_NULL_THUNK_DATA 100501cc     ws2_32:WS2_32.dll
 0002:000001d0       ___xc_a                    100501d0     LIBCMTD:crt0init.obj
 0002:000001d4       ___xc_z                    100501d4     LIBCMTD:crt0init.obj
 0002:000001d8       ___xi_a                    100501d8     LIBCMTD:crt0init.obj
 0002:000001ec       ___xi_z                    100501ec     LIBCMTD:crt0init.obj
 0002:000001f0       ___xp_a                    100501f0     LIBCMTD:crt0init.obj
 0002:00000200       ___xp_z                    10050200     LIBCMTD:crt0init.obj
 0002:00000204       ___xt_a                    10050204     LIBCMTD:crt0init.obj
 0002:00000208       ___xt_z                    10050208     LIBCMTD:crt0init.obj
 0002:00000448       __modbus_rtu_backend       10050448     modbus-rtu.obj
 0002:00000498       __modbus_tcp_backend       10050498     modbus-tcp.obj
 0002:000004e8       __modbus_tcp_pi_backend    100504e8     modbus-tcp.obj
 0002:00000534       _libmodbus_version_major   10050534     modbus.obj
 0002:00000538       _libmodbus_version_minor   10050538     modbus.obj
 0002:0000053c       _libmodbus_version_micro   1005053c     modbus.obj
 0002:00000540       ??_C@_17LGKOMLJ@?$AA?4?$AA?4?$AA?4?$AA?$AA@ 10050540     LIBCMTD:wassert.obj
 0002:00000548       ??_C@_13LBAGMAIH@?$AA?6?$AA?$AA@ 10050548     LIBCMTD:wassert.obj
 0002:0000054c       ??_C@_15IABLJNFO@?$AA?6?$AA?6?$AA?$AA@ 1005054c     LIBCMTD:wassert.obj
 0002:00000558       ??_C@_1GA@COEIABIF@?$AAf?$AA?3?$AA?2?$AAd?$AAd?$AA?2?$AAv?$AAc?$AAt?$AAo?$AAo?$AAl?$AAs?$AA?2?$AAc?$AAr?$AAt?$AA_?$AAb?$AAl?$AAd?$AA?2?$AAs?$AAe?$AAl?$AAf?$AA_?$AAx?$AA8?$AA6?$AA?2?$AAc@ 10050558     LIBCMTD:wassert.obj
 0002:000005b8       ??_C@_1BC@LNOOMFNA@?$AA_?$AAw?$AAa?$AAs?$AAs?$AAe?$AAr?$AAt?$AA?$AA@ 100505b8     LIBCMTD:wassert.obj
 0002:000005d0       ??_C@_1GM@PANFFKAD@?$AAw?$AAc?$AAs?$AAc?$AAp?$AAy?$AA_?$AAs?$AA?$CI?$AA?5?$AAa?$AAs?$AAs?$AAe?$AAr?$AAt?$AAb?$AAu?$AAf?$AA?0?$AA?5?$AA?$CI?$AA6?$AA4?$AA?5?$AA?$CK?$AA?5?$AA9?$AA?$CJ?$AA?0?$AA?5?$AAL@ 100505d0     LIBCMTD:wassert.obj
 0002:0000063c       ??_C@_1CE@OJBNHDMO@?$AAA?$AAs?$AAs?$AAe?$AAr?$AAt?$AAi?$AAo?$AAn?$AA?5?$AAf?$AAa?$AAi?$AAl?$AAe?$AAd?$AA?$CB?$AA?$AA@ 1005063c     LIBCMTD:wassert.obj
 0002:00000660       ??_C@_1FI@OJONHFCN@?$AAw?$AAc?$AAs?$AAc?$AAa?$AAt?$AA_?$AAs?$AA?$CI?$AA?5?$AAa?$AAs?$AAs?$AAe?$AAr?$AAt?$AAb?$AAu?$AAf?$AA?0?$AA?5?$AA?$CI?$AA6?$AA4?$AA?5?$AA?$CK?$AA?5?$AA9?$AA?$CJ?$AA?0?$AA?5?$AAd@ 10050660     LIBCMTD:wassert.obj
 0002:000006b8       ??_C@_1FM@JONFCKBO@?$AAw?$AAc?$AAs?$AAc?$AAa?$AAt?$AA_?$AAs?$AA?$CI?$AA?5?$AAa?$AAs?$AAs?$AAe?$AAr?$AAt?$AAb?$AAu?$AAf?$AA?0?$AA?5?$AA?$CI?$AA6?$AA4?$AA?5?$AA?$CK?$AA?5?$AA9?$AA?$CJ?$AA?0?$AA?5?$AAL@ 100506b8     LIBCMTD:wassert.obj
 0002:00000714       ??_C@_1BE@PHKBBGE@?$AAP?$AAr?$AAo?$AAg?$AAr?$AAa?$AAm?$AA?3?$AA?5?$AA?$AA@ 10050714     LIBCMTD:wassert.obj
 0002:00000728       ??_C@_1HA@EPFCONEE@?$AAw?$AAc?$AAs?$AAc?$AAp?$AAy?$AA_?$AAs?$AA?$CI?$AA?5?$AAp?$AAr?$AAo?$AAg?$AAn?$AAa?$AAm?$AAe?$AA?0?$AA?5?$AA2?$AA6?$AA0?$AA?5?$AA?$CL?$AA?5?$AA1?$AA?0?$AA?5?$AAL?$AA?$CC?$AA?$DM@ 10050728     LIBCMTD:wassert.obj
 0002:00000798       ??_C@_1CO@EAEJAADC@?$AA?$DM?$AAp?$AAr?$AAo?$AAg?$AAr?$AAa?$AAm?$AA?5?$AAn?$AAa?$AAm?$AAe?$AA?5?$AAu?$AAn?$AAk?$AAn?$AAo?$AAw?$AAn?$AA?$DO?$AA?$AA@ 10050798     LIBCMTD:wassert.obj
 0002:000007c8       ??_C@_1LK@LGFOFOMH@?$AAm?$AAe?$AAm?$AAc?$AAp?$AAy?$AA_?$AAs?$AA?$CI?$AAp?$AAc?$AAh?$AA?0?$AA?5?$AAs?$AAi?$AAz?$AAe?$AAo?$AAf?$AA?$CI?$AAT?$AAC?$AAH?$AAA?$AAR?$AA?$CJ?$AA?5?$AA?$CK?$AA?5?$AA?$CI?$AA?$CI@ 100507c8     LIBCMTD:wassert.obj
 0002:00000888       ??_C@_1EK@BFAHOLDO@?$AAw?$AAc?$AAs?$AAc?$AAa?$AAt?$AA_?$AAs?$AA?$CI?$AA?5?$AAa?$AAs?$AAs?$AAe?$AAr?$AAt?$AAb?$AAu?$AAf?$AA?0?$AA?5?$AA?$CI?$AA6?$AA4?$AA?5?$AA?$CK?$AA?5?$AA9?$AA?$CJ?$AA?0?$AA?5?$AAp@ 10050888     LIBCMTD:wassert.obj
 0002:000008d8       ??_C@_1FC@GNPGDADJ@?$AAw?$AAc?$AAs?$AAc?$AAa?$AAt?$AA_?$AAs?$AA?$CI?$AA?5?$AAa?$AAs?$AAs?$AAe?$AAr?$AAt?$AAb?$AAu?$AAf?$AA?0?$AA?5?$AA?$CI?$AA6?$AA4?$AA?5?$AA?$CK?$AA?5?$AA9?$AA?$CJ?$AA?0?$AA?5?$AAn@ 100508d8     LIBCMTD:wassert.obj
 0002:00000930       ??_C@_1FG@NHACFNEK@?$AAw?$AAc?$AAs?$AAc?$AAa?$AAt?$AA_?$AAs?$AA?$CI?$AA?5?$AAa?$AAs?$AAs?$AAe?$AAr?$AAt?$AAb?$AAu?$AAf?$AA?0?$AA?5?$AA?$CI?$AA6?$AA4?$AA?5?$AA?$CK?$AA?5?$AA9?$AA?$CJ?$AA?0?$AA?5?$AAL@ 10050930     LIBCMTD:wassert.obj
 0002:00000988       ??_C@_1O@HEMHKNDC@?$AAF?$AAi?$AAl?$AAe?$AA?3?$AA?5?$AA?$AA@ 10050988     LIBCMTD:wassert.obj
 0002:00000998       ??_C@_1GG@PKOIFPHI@?$AAw?$AAc?$AAs?$AAn?$AAc?$AAa?$AAt?$AA_?$AAs?$AA?$CI?$AA?5?$AAa?$AAs?$AAs?$AAe?$AAr?$AAt?$AAb?$AAu?$AAf?$AA?0?$AA?5?$AA?$CI?$AA6?$AA4?$AA?5?$AA?$CK?$AA?5?$AA9?$AA?$CJ?$AA?0?$AA?5@ 10050998     LIBCMTD:wassert.obj
 0002:00000a00       ??_C@_1FG@PLMFGJFG@?$AAw?$AAc?$AAs?$AAc?$AAa?$AAt?$AA_?$AAs?$AA?$CI?$AA?5?$AAa?$AAs?$AAs?$AAe?$AAr?$AAt?$AAb?$AAu?$AAf?$AA?0?$AA?5?$AA?$CI?$AA6?$AA4?$AA?5?$AA?$CK?$AA?5?$AA9?$AA?$CJ?$AA?0?$AA?5?$AAd@ 10050a00     LIBCMTD:wassert.obj
 0002:00000a58       ??_C@_1FO@HPHMICDB@?$AAw?$AAc?$AAs?$AAc?$AAa?$AAt?$AA_?$AAs?$AA?$CI?$AA?5?$AAa?$AAs?$AAs?$AAe?$AAr?$AAt?$AAb?$AAu?$AAf?$AA?0?$AA?5?$AA?$CI?$AA6?$AA4?$AA?5?$AA?$CK?$AA?5?$AA9?$AA?$CJ?$AA?0?$AA?5?$AAp@ 10050a58     LIBCMTD:wassert.obj
 0002:00000ab8       ??_C@_1GO@KNIHEHNA@?$AAw?$AAc?$AAs?$AAn?$AAc?$AAa?$AAt?$AA_?$AAs?$AA?$CI?$AA?5?$AAa?$AAs?$AAs?$AAe?$AAr?$AAt?$AAb?$AAu?$AAf?$AA?0?$AA?5?$AA?$CI?$AA6?$AA4?$AA?5?$AA?$CK?$AA?5?$AA9?$AA?$CJ?$AA?0?$AA?5@ 10050ab8     LIBCMTD:wassert.obj
 0002:00000b28       ??_C@_1HG@FHHFPPED@?$AAw?$AAc?$AAs?$AAn?$AAc?$AAa?$AAt?$AA_?$AAs?$AA?$CI?$AA?5?$AAa?$AAs?$AAs?$AAe?$AAr?$AAt?$AAb?$AAu?$AAf?$AA?0?$AA?5?$AA?$CI?$AA6?$AA4?$AA?5?$AA?$CK?$AA?5?$AA9?$AA?$CJ?$AA?0?$AA?5@ 10050b28     LIBCMTD:wassert.obj
 0002:00000ba0       ??_C@_1IC@JGCGJJHO@?$AAw?$AAc?$AAs?$AAc?$AAa?$AAt?$AA_?$AAs?$AA?$CI?$AA?5?$AAa?$AAs?$AAs?$AAe?$AAr?$AAt?$AAb?$AAu?$AAf?$AA?0?$AA?5?$AA?$CI?$AA6?$AA4?$AA?5?$AA?$CK?$AA?5?$AA9?$AA?$CJ?$AA?0?$AA?5?$AAp@ 10050ba0     LIBCMTD:wassert.obj
 0002:00000c28       ??_C@_1FE@NDOBOCBD@?$AAw?$AAc?$AAs?$AAc?$AAa?$AAt?$AA_?$AAs?$AA?$CI?$AA?5?$AAa?$AAs?$AAs?$AAe?$AAr?$AAt?$AAb?$AAu?$AAf?$AA?0?$AA?5?$AA?$CI?$AA6?$AA4?$AA?5?$AA?$CK?$AA?5?$AA9?$AA?$CJ?$AA?0?$AA?5?$AAf@ 10050c28     LIBCMTD:wassert.obj
 0002:00000c80       ??_C@_1FG@HLHNIBH@?$AAw?$AAc?$AAs?$AAc?$AAa?$AAt?$AA_?$AAs?$AA?$CI?$AA?5?$AAa?$AAs?$AAs?$AAe?$AAr?$AAt?$AAb?$AAu?$AAf?$AA?0?$AA?5?$AA?$CI?$AA6?$AA4?$AA?5?$AA?$CK?$AA?5?$AA9?$AA?$CJ?$AA?0?$AA?5?$AAL@ 10050c80     LIBCMTD:wassert.obj
 0002:00000cd8       ??_C@_1O@KCAFKHJE@?$AAL?$AAi?$AAn?$AAe?$AA?3?$AA?5?$AA?$AA@ 10050cd8     LIBCMTD:wassert.obj
 0002:00000ce8       ??_C@_1KG@NJJPHNOK@?$AA_?$AAi?$AAt?$AAo?$AAw?$AA_?$AAs?$AA?$CI?$AA?5?$AAl?$AAi?$AAn?$AAe?$AAn?$AAo?$AA?0?$AA?5?$AAa?$AAs?$AAs?$AAe?$AAr?$AAt?$AAb?$AAu?$AAf?$AA?5?$AA?$CL?$AA?5?$AAw?$AAc?$AAs@ 10050ce8     LIBCMTD:wassert.obj
 0002:00000d90       ??_C@_1GC@CFDADAM@?$AAw?$AAc?$AAs?$AAc?$AAa?$AAt?$AA_?$AAs?$AA?$CI?$AA?5?$AAa?$AAs?$AAs?$AAe?$AAr?$AAt?$AAb?$AAu?$AAf?$AA?0?$AA?5?$AA?$CI?$AA6?$AA4?$AA?5?$AA?$CK?$AA?5?$AA9?$AA?$CJ?$AA?0?$AA?5?$AAL@ 10050d90     LIBCMTD:wassert.obj
 0002:00000df4       ??_C@_1BK@PEDCIPMA@?$AAE?$AAx?$AAp?$AAr?$AAe?$AAs?$AAs?$AAi?$AAo?$AAn?$AA?3?$AA?5?$AA?$AA@ 10050df4     LIBCMTD:wassert.obj
 0002:00000e10       ??_C@_1CHM@HIHGOMKE@?$AAw?$AAc?$AAs?$AAn?$AAc?$AAa?$AAt?$AA_?$AAs?$AA?$CI?$AA?5?$AAa?$AAs?$AAs?$AAe?$AAr?$AAt?$AAb?$AAu?$AAf?$AA?0?$AA?5?$AA?$CI?$AA6?$AA4?$AA?5?$AA?$CK?$AA?5?$AA9?$AA?$CJ?$AA?0?$AA?5@ 10050e10     LIBCMTD:wassert.obj
 0002:00001090       ??_C@_1EM@DAMJKKKC@?$AAw?$AAc?$AAs?$AAc?$AAa?$AAt?$AA_?$AAs?$AA?$CI?$AA?5?$AAa?$AAs?$AAs?$AAe?$AAr?$AAt?$AAb?$AAu?$AAf?$AA?0?$AA?5?$AA?$CI?$AA6?$AA4?$AA?5?$AA?$CK?$AA?5?$AA9?$AA?$CJ?$AA?0?$AA?5?$AAe@ 10051090     LIBCMTD:wassert.obj
 0002:000010e0       ??_C@_1BCO@GAGHDLIF@?$AAw?$AAc?$AAs?$AAc?$AAa?$AAt?$AA_?$AAs?$AA?$CI?$AAa?$AAs?$AAs?$AAe?$AAr?$AAt?$AAb?$AAu?$AAf?$AA?0?$AA?5?$AA?$CI?$AA6?$AA4?$AA?5?$AA?$CK?$AA?5?$AA9?$AA?$CJ?$AA?0?$AA?5?$AAL?$AA?$CC@ 100510e0     LIBCMTD:wassert.obj
 0002:00001210       ??_C@_1OA@EGMLFBHJ@?$AAF?$AAo?$AAr?$AA?5?$AAi?$AAn?$AAf?$AAo?$AAr?$AAm?$AAa?$AAt?$AAi?$AAo?$AAn?$AA?5?$AAo?$AAn?$AA?5?$AAh?$AAo?$AAw?$AA?5?$AAy?$AAo?$AAu?$AAr?$AA?5?$AAp?$AAr?$AAo?$AAg@ 10051210     LIBCMTD:wassert.obj
 0002:000012f0       ??_C@_1FG@IFIHHMNM@?$AAw?$AAc?$AAs?$AAc?$AAa?$AAt?$AA_?$AAs?$AA?$CI?$AAa?$AAs?$AAs?$AAe?$AAr?$AAt?$AAb?$AAu?$AAf?$AA?0?$AA?5?$AA?$CI?$AA6?$AA4?$AA?5?$AA?$CK?$AA?5?$AA9?$AA?$CJ?$AA?0?$AA?5?$AAd?$AAb@ 100512f0     LIBCMTD:wassert.obj
 0002:00001348       ??_C@_1LO@CHAFGADE@?$AAw?$AAc?$AAs?$AAc?$AAa?$AAt?$AA_?$AAs?$AA?$CI?$AAa?$AAs?$AAs?$AAe?$AAr?$AAt?$AAb?$AAu?$AAf?$AA?0?$AA?5?$AA?$CI?$AA6?$AA4?$AA?5?$AA?$CK?$AA?5?$AA9?$AA?$CJ?$AA?0?$AA?5?$AAL?$AA?$CC@ 10051348     LIBCMTD:wassert.obj
 0002:00001408       ??_C@_1HK@POCJMFGK@?$AA?$CI?$AAP?$AAr?$AAe?$AAs?$AAs?$AA?5?$AAR?$AAe?$AAt?$AAr?$AAy?$AA?5?$AAt?$AAo?$AA?5?$AAd?$AAe?$AAb?$AAu?$AAg?$AA?5?$AAt?$AAh?$AAe?$AA?5?$AAa?$AAp?$AAp?$AAl?$AAi?$AAc@ 10051408     LIBCMTD:wassert.obj
 0002:00001488       ??_C@_1EK@MBDPDCGA@?$AAM?$AAi?$AAc?$AAr?$AAo?$AAs?$AAo?$AAf?$AAt?$AA?5?$AAV?$AAi?$AAs?$AAu?$AAa?$AAl?$AA?5?$AAC?$AA?$CL?$AA?$CL?$AA?5?$AAR?$AAu?$AAn?$AAt?$AAi?$AAm?$AAe?$AA?5?$AAL?$AAi?$AAb@ 10051488     LIBCMTD:wassert.obj
 0002:000014d4       __FPinit                   100514d4     LIBCMTD:fpinit.obj
 0002:000014d8       ??_C@_0CP@BNKDODJJ@f?3?2dd?2vctools?2crt_bld?2self_x86?2c@ 100514d8     LIBCMTD:_file.obj
 0002:00001508       ??_C@_1BM@JMKHIAHP@?$AA?$CI?$AAs?$AAt?$AAr?$AA?5?$AA?$CB?$AA?$DN?$AA?5?$AAN?$AAU?$AAL?$AAL?$AA?$CJ?$AA?$AA@ 10051508     LIBCMTD:fprintf.obj
 0002:00001524       ??_C@_15GANGMFKL@?$AA?$CF?$AAs?$AA?$AA@ 10051524     LIBCMTD:fprintf.obj
 0002:00001530       ??_C@_1GC@NHJDDBOH@?$AAf?$AA?3?$AA?2?$AAd?$AAd?$AA?2?$AAv?$AAc?$AAt?$AAo?$AAo?$AAl?$AAs?$AA?2?$AAc?$AAr?$AAt?$AA_?$AAb?$AAl?$AAd?$AA?2?$AAs?$AAe?$AAl?$AAf?$AA_?$AAx?$AA8?$AA6?$AA?2?$AAc@ 10051530     LIBCMTD:fprintf.obj
 0002:00001594       ??_C@_1BA@DNOHIGNM@?$AAf?$AAp?$AAr?$AAi?$AAn?$AAt?$AAf?$AA?$AA@ 10051594     LIBCMTD:fprintf.obj
 0002:000015a4       ??_C@_1CC@MGIEJOME@?$AA?$CI?$AAf?$AAo?$AAr?$AAm?$AAa?$AAt?$AA?5?$AA?$CB?$AA?$DN?$AA?5?$AAN?$AAU?$AAL?$AAL?$AA?$CJ?$AA?$AA@ 100515a4     LIBCMTD:fprintf.obj
 0002:000015c8       ??_C@_1BAA@ODEGEDCK@?$AA?$CI?$AA?5?$AA?$CI?$AA_?$AAS?$AAt?$AAr?$AAe?$AAa?$AAm?$AA?9?$AA?$DO?$AA_?$AAf?$AAl?$AAa?$AAg?$AA?5?$AA?$CG?$AA?5?$AA_?$AAI?$AAO?$AAS?$AAT?$AAR?$AAG?$AA?$CJ?$AA?5?$AA?$HM?$AA?$HM?$AA?5@ 100515c8     LIBCMTD:fprintf.obj
 0002:000016c8       ??_C@_1GA@LHEGHOAF@?$AAf?$AA?3?$AA?2?$AAd?$AAd?$AA?2?$AAv?$AAc?$AAt?$AAo?$AAo?$AAl?$AAs?$AA?2?$AAc?$AAr?$AAt?$AA_?$AAb?$AAl?$AAd?$AA?2?$AAs?$AAe?$AAl?$AAf?$AA_?$AAx?$AA8?$AA6?$AA?2?$AAc@ 100516c8     LIBCMTD:printf.obj
 0002:00001728       ??_C@_1O@GKDHFACN@?$AAp?$AAr?$AAi?$AAn?$AAt?$AAf?$AA?$AA@ 10051728     LIBCMTD:printf.obj
 0002:00001738       ??_C@_1BO@LKEBEKJP@?$AAp?$AAV?$AAa?$AAl?$AAu?$AAe?$AA?5?$AA?$CB?$AA?$DN?$AA?5?$AAN?$AAU?$AAL?$AAL?$AA?$AA@ 10051738     LIBCMTD:dosmap.obj
 0002:00001758       ??_C@_1GA@MFGIMPNL@?$AAf?$AA?3?$AA?2?$AAd?$AAd?$AA?2?$AAv?$AAc?$AAt?$AAo?$AAo?$AAl?$AAs?$AA?2?$AAc?$AAr?$AAt?$AA_?$AAb?$AAl?$AAd?$AA?2?$AAs?$AAe?$AAl?$AAf?$AA_?$AAx?$AA8?$AA6?$AA?2?$AAc@ 10051758     LIBCMTD:dosmap.obj
 0002:000017b8       ??_C@_1BG@KCMPBBDK@?$AA_?$AAg?$AAe?$AAt?$AA_?$AAe?$AAr?$AAr?$AAn?$AAo?$AA?$AA@ 100517b8     LIBCMTD:dosmap.obj
 0002:000017d0       ??_C@_1BM@INIPHHDD@?$AA_?$AAg?$AAe?$AAt?$AA_?$AAd?$AAo?$AAs?$AAe?$AAr?$AAr?$AAn?$AAo?$AA?$AA@ 100517d0     LIBCMTD:dosmap.obj
 0002:000017ec       ?ProcessDetach@NativeDll@<CrtImplementationDetails>@@0IB 100517ec     LIBCMTD:dbgfree.obj
 0002:000017f0       ?ProcessAttach@NativeDll@<CrtImplementationDetails>@@0IB 100517f0     LIBCMTD:dbgfree.obj
 0002:000017f4       ?ThreadAttach@NativeDll@<CrtImplementationDetails>@@0IB 100517f4     LIBCMTD:dbgfree.obj
 0002:000017f8       ?ThreadDetach@NativeDll@<CrtImplementationDetails>@@0IB 100517f8     LIBCMTD:dbgfree.obj
 0002:000017fc       ?ProcessVerifier@NativeDll@<CrtImplementationDetails>@@0IB 100517fc     LIBCMTD:dbgfree.obj
 0002:00001800       ??_C@_02LMMGGCAJ@?3?5?$AA@ 10051800     LIBCMTD:perror.obj
 0002:00001804       ??_C@_01EEMJAFIK@?6?$AA@   10051804     LIBCMTD:perror.obj
 0002:000018a8       ??_C@_0NN@NGPKDKPD@The?5value?5of?5ESP?5was?5not?5properl@ 100518a8     LIBCMTD:error.obj
 0002:00001988       ??_C@_0BBN@GPMLNJCF@A?5cast?5to?5a?5smaller?5data?5type?5ha@ 10051988     LIBCMTD:error.obj
 0002:00001aa8       ??_C@_0BN@FFOINMNJ@Stack?5memory?5was?5corrupted?6?$AN?$AA@ 10051aa8     LIBCMTD:error.obj
 0002:00001ac8       ??_C@_0DG@HKJMLLLP@A?5local?5variable?5was?5used?5before@ 10051ac8     LIBCMTD:error.obj
 0002:00001b00       ??_C@_0CM@NGINOKPC@Stack?5memory?5around?5_alloca?5was?5@ 10051b00     LIBCMTD:error.obj
 0002:00001b2c       ??_C@_0BO@GNIAFIKK@Unknown?5Runtime?5Check?5Error?6?$AN?$AA@ 10051b2c     LIBCMTD:error.obj
 0002:00001b50       ??_C@_1GM@OLMCBDMB@?$AAR?$AAu?$AAn?$AAt?$AAi?$AAm?$AAe?$AA?5?$AAC?$AAh?$AAe?$AAc?$AAk?$AA?5?$AAE?$AAr?$AAr?$AAo?$AAr?$AA?4?$AA?6?$AA?$AN?$AA?5?$AAU?$AAn?$AAa?$AAb?$AAl?$AAe?$AA?5?$AAt?$AAo@ 10051b50     LIBCMTD:error.obj
 0002:00001bc0       ??_C@_1EA@NFKNIFJP@?$AAR?$AAu?$AAn?$AA?9?$AAT?$AAi?$AAm?$AAe?$AA?5?$AAC?$AAh?$AAe?$AAc?$AAk?$AA?5?$AAF?$AAa?$AAi?$AAl?$AAu?$AAr?$AAe?$AA?5?$AA?$CD?$AA?$CF?$AAd?$AA?5?$AA?9?$AA?5?$AA?$CF?$AAs?$AA?$AA@ 10051bc0     LIBCMTD:error.obj
 0002:00001c00       ??_C@_0BB@PFFGGCJP@Unknown?5Filename?$AA@ 10051c00     LIBCMTD:error.obj
 0002:00001c14       ??_C@_0BE@GNBOBNCK@Unknown?5Module?5Name?$AA@ 10051c14     LIBCMTD:error.obj
 0002:00001c28       ??_C@_0CA@IODNCDPG@Run?9Time?5Check?5Failure?5?$CD?$CFd?5?9?5?$CFs?$AA@ 10051c28     LIBCMTD:error.obj
 0002:00001c48       ??_C@_0CG@IAFNJNEE@Stack?5corrupted?5near?5unknown?5var@ 10051c48     LIBCMTD:error.obj
 0002:00001c70       ??_C@_05MKKEDADM@?$CF?42X?5?$AA@ 10051c70     LIBCMTD:error.obj
 0002:00001c78       ??_C@_1BG@OILDLIOJ@?$AAu?$AAs?$AAe?$AAr?$AA3?$AA2?$AA?4?$AAd?$AAl?$AAl?$AA?$AA@ 10051c78     LIBCMTD:error.obj
 0002:00001c90       ??_C@_09FOPFMPEJ@wsprintfA?$AA@ 10051c90     LIBCMTD:error.obj
 0002:00001ca0       ??_C@_0EJ@LJKNEOLN@Stack?5area?5around?5_alloca?5memory@ 10051ca0     LIBCMTD:error.obj
 0002:00001cec       ??_C@_08OMAHNMHJ@?6Data?3?5?$DM?$AA@ 10051cec     LIBCMTD:error.obj
 0002:00001cf8       ??_C@_0CK@DKGBICFE@?6Allocation?5number?5within?5this?5f@ 10051cf8     LIBCMTD:error.obj
 0002:00001d24       ??_C@_07DFDJCKFN@?6Size?3?5?$AA@ 10051d24     LIBCMTD:error.obj
 0002:00001d2c       ??_C@_0N@MHFFIMFG@?6Address?3?50x?$AA@ 10051d2c     LIBCMTD:error.obj
 0002:00001d40       ??_C@_0EI@CLEPFNGI@Stack?5area?5around?5_alloca?5memory@ 10051d40     LIBCMTD:error.obj
 0002:00001d88       ??_C@_0BC@KIBAILCI@?$CFs?$CFs?$CFp?$CFs?$CFld?$CFs?$CFd?$CFs?$AA@ 10051d88     LIBCMTD:error.obj
 0002:00001d9c       ??_C@_02LLMPMKNF@?$DO?5?$AA@ 10051d9c     LIBCMTD:error.obj
 0002:00001da0       ??_C@_08KJEDNCKC@?$CFs?$CFs?$CFs?$CFs?$AA@ 10051da0     LIBCMTD:error.obj
 0002:00001dac       ??_C@_0DE@OHJBPMBP@A?5variable?5is?5being?5used?5without@ 10051dac     LIBCMTD:error.obj
 0002:00001de8       ??_C@_0EA@FCLIIPNN@Visual?5C?$CL?$CL?5CRT?3?5Not?5enough?5memor@ 10051de8     LIBCMTD:strerror.obj
 0002:00001e28       ??_C@_0DC@PHLJOGAJ@f?3?2dd?2vctools?2crt_bld?2self_x86?2c@ 10051e28     LIBCMTD:strerror.obj
 0002:00001e60       ??_C@_1GE@IMODLDCP@?$AAf?$AA?3?$AA?2?$AAd?$AAd?$AA?2?$AAv?$AAc?$AAt?$AAo?$AAo?$AAl?$AAs?$AA?2?$AAc?$AAr?$AAt?$AA_?$AAb?$AAl?$AAd?$AA?2?$AAs?$AAe?$AAl?$AAf?$AA_?$AAx?$AA8?$AA6?$AA?2?$AAc@ 10051e60     LIBCMTD:strerror.obj
 0002:00001ec4       ??_C@_1BC@CPPAPMCG@?$AAs?$AAt?$AAr?$AAe?$AAr?$AAr?$AAo?$AAr?$AA?$AA@ 10051ec4     LIBCMTD:strerror.obj
 0002:00001ed8       ??_C@_1GM@HFLCJPGH@?$AAs?$AAt?$AAr?$AAc?$AAp?$AAy?$AA_?$AAs?$AA?$CI?$AAe?$AAr?$AAr?$AAm?$AAs?$AAg?$AA?0?$AA?5?$AA?$CI?$AA9?$AA4?$AA?$CL?$AA3?$AA8?$AA?$CL?$AA2?$AA?$CJ?$AA?0?$AA?5?$AA_?$AAg?$AAe?$AAt@ 10051ed8     LIBCMTD:strerror.obj
 0002:00001f44       ??_C@_1BO@PNINNIGK@?$AAb?$AAu?$AAf?$AAf?$AAe?$AAr?$AA?5?$AA?$CB?$AA?$DN?$AA?5?$AAN?$AAU?$AAL?$AAL?$AA?$AA@ 10051f44     LIBCMTD:strerror.obj
 0002:00001f64       ??_C@_1BG@CLIBDOC@?$AAs?$AAt?$AAr?$AAe?$AAr?$AAr?$AAo?$AAr?$AA_?$AAs?$AA?$AA@ 10051f64     LIBCMTD:strerror.obj
 0002:00001f7c       ??_C@_1CC@JNJFIMGE@?$AAs?$AAi?$AAz?$AAe?$AAI?$AAn?$AAT?$AAC?$AAh?$AAa?$AAr?$AAs?$AA?5?$AA?$DO?$AA?5?$AA0?$AA?$AA@ 10051f7c     LIBCMTD:strerror.obj
 0002:00001fa0       ??_C@_1JI@GAHGOJMC@?$AAs?$AAt?$AAr?$AAn?$AAc?$AAp?$AAy?$AA_?$AAs?$AA?$CI?$AAb?$AAu?$AAf?$AAf?$AAe?$AAr?$AA?0?$AA?5?$AAs?$AAi?$AAz?$AAe?$AAI?$AAn?$AAT?$AAC?$AAh?$AAa?$AAr?$AAs?$AA?0?$AA?5@ 10051fa0     LIBCMTD:strerror.obj
 0002:00002038       __pDefaultRawDllMain       10052038     LIBCMTD:dllcrt0.obj
 0002:00002038       __pRawDllMain              10052038     LIBCMTD:dllcrt0.obj
 0002:0000203c       ??_C@_0DB@OLNOAEGF@f?3?2dd?2vctools?2crt_bld?2self_x86?2c@ 1005203c     LIBCMTD:dllcrt0.obj
 0002:00002070       ??_C@_1BI@GKKCBDMD@?$AAd?$AAs?$AAt?$AA?5?$AA?$CB?$AA?$DN?$AA?5?$AAN?$AAU?$AAL?$AAL?$AA?$AA@ 10052070     LIBCMTD:memcpy_s.obj
 0002:00002088       ??_C@_1GE@NEOPGGBM@?$AAf?$AA?3?$AA?2?$AAd?$AAd?$AA?2?$AAv?$AAc?$AAt?$AAo?$AAo?$AAl?$AAs?$AA?2?$AAc?$AAr?$AAt?$AA_?$AAb?$AAl?$AAd?$AA?2?$AAs?$AAe?$AAl?$AAf?$AA_?$AAx?$AA8?$AA6?$AA?2?$AAc@ 10052088     LIBCMTD:memcpy_s.obj
 0002:000020ec       ??_C@_1BC@GKHDJMGB@?$AAm?$AAe?$AAm?$AAc?$AAp?$AAy?$AA_?$AAs?$AA?$AA@ 100520ec     LIBCMTD:memcpy_s.obj
 0002:00002100       ??_C@_1BI@DCHLDCPP@?$AAs?$AAr?$AAc?$AA?5?$AA?$CB?$AA?$DN?$AA?5?$AAN?$AAU?$AAL?$AAL?$AA?$AA@ 10052100     LIBCMTD:memcpy_s.obj
 0002:00002118       ??_C@_1CK@DDKKOLAN@?$AAs?$AAi?$AAz?$AAe?$AAI?$AAn?$AAB?$AAy?$AAt?$AAe?$AAs?$AA?5?$AA?$DO?$AA?$DN?$AA?5?$AAc?$AAo?$AAu?$AAn?$AAt?$AA?$AA@ 10052118     LIBCMTD:memcpy_s.obj
 0002:00002148       ??_C@_1FC@PFMLEHKI@?$AA?$CI?$AA?$CI?$AA_?$AAD?$AAs?$AAt?$AA?$CJ?$AA?$CJ?$AA?5?$AA?$CB?$AA?$DN?$AA?5?$AAN?$AAU?$AAL?$AAL?$AA?5?$AA?$CG?$AA?$CG?$AA?5?$AA?$CI?$AA?$CI?$AA_?$AAS?$AAi?$AAz?$AAe?$AAI?$AAn?$AAW?$AAo?$AAr@ 10052148     LIBCMTD:wcscat_s.obj
 0002:000021a0       ??_C@_1GI@NOKGIAGA@?$AAf?$AA?3?$AA?2?$AAd?$AAd?$AA?2?$AAv?$AAc?$AAt?$AAo?$AAo?$AAl?$AAs?$AA?2?$AAc?$AAr?$AAt?$AA_?$AAb?$AAl?$AAd?$AA?2?$AAs?$AAe?$AAl?$AAf?$AA_?$AAx?$AA8?$AA6?$AA?2?$AAc@ 100521a0     LIBCMTD:wcscat_s.obj
 0002:00002208       ??_C@_1BC@PLIEPKPJ@?$AAw?$AAc?$AAs?$AAc?$AAa?$AAt?$AA_?$AAs?$AA?$AA@ 10052208     LIBCMTD:wcscat_s.obj
 0002:0000221c       ??_C@_1CG@OFBJMIGJ@?$AA?$CI?$AA?$CI?$AA?$CI?$AA_?$AAS?$AAr?$AAc?$AA?$CJ?$AA?$CJ?$AA?$CJ?$AA?5?$AA?$CB?$AA?$DN?$AA?5?$AAN?$AAU?$AAL?$AAL?$AA?$AA@ 1005221c     LIBCMTD:wcscat_s.obj
 0002:00002244       ??_C@_1DM@FHLMIEG@?$AAS?$AAt?$AAr?$AAi?$AAn?$AAg?$AA?5?$AAi?$AAs?$AA?5?$AAn?$AAo?$AAt?$AA?5?$AAn?$AAu?$AAl?$AAl?$AA?5?$AAt?$AAe?$AAr?$AAm?$AAi?$AAn?$AAa?$AAt?$AAe?$AAd?$AA?$AA@ 10052244     LIBCMTD:wcscat_s.obj
 0002:00002280       ??_C@_1FA@MJKDNFFB@?$AA?$CI?$AAL?$AA?$CC?$AAS?$AAt?$AAr?$AAi?$AAn?$AAg?$AA?5?$AAi?$AAs?$AA?5?$AAn?$AAo?$AAt?$AA?5?$AAn?$AAu?$AAl?$AAl?$AA?5?$AAt?$AAe?$AAr?$AAm?$AAi?$AAn?$AAa?$AAt?$AAe?$AAd@ 10052280     LIBCMTD:wcscat_s.obj
 0002:000022d0       ??_C@_1CI@HCPHDDLE@?$AAB?$AAu?$AAf?$AAf?$AAe?$AAr?$AA?5?$AAi?$AAs?$AA?5?$AAt?$AAo?$AAo?$AA?5?$AAs?$AAm?$AAa?$AAl?$AAl?$AA?$AA@ 100522d0     LIBCMTD:wcscat_s.obj
 0002:000022f8       ??_C@_1DM@MADKGDLO@?$AA?$CI?$AAL?$AA?$CC?$AAB?$AAu?$AAf?$AAf?$AAe?$AAr?$AA?5?$AAi?$AAs?$AA?5?$AAt?$AAo?$AAo?$AA?5?$AAs?$AAm?$AAa?$AAl?$AAl?$AA?$CC?$AA?5?$AA?$CG?$AA?$CG?$AA?5?$AA0?$AA?$CJ?$AA?$AA@ 100522f8     LIBCMTD:wcscat_s.obj
 0002:00002338       ??_C@_1GI@BGBNCIMA@?$AAf?$AA?3?$AA?2?$AAd?$AAd?$AA?2?$AAv?$AAc?$AAt?$AAo?$AAo?$AAl?$AAs?$AA?2?$AAc?$AAr?$AAt?$AA_?$AAb?$AAl?$AAd?$AA?2?$AAs?$AAe?$AAl?$AAf?$AA_?$AAx?$AA8?$AA6?$AA?2?$AAc@ 10052338     LIBCMTD:wcscpy_s.obj
 0002:000023a0       ??_C@_1BC@KIONAFPO@?$AAw?$AAc?$AAs?$AAc?$AAp?$AAy?$AA_?$AAs?$AA?$AA@ 100523a0     LIBCMTD:wcscpy_s.obj
 0002:000023b8       ??_C@_1GK@DICCLCDF@?$AAf?$AA?3?$AA?2?$AAd?$AAd?$AA?2?$AAv?$AAc?$AAt?$AAo?$AAo?$AAl?$AAs?$AA?2?$AAc?$AAr?$AAt?$AA_?$AAb?$AAl?$AAd?$AA?2?$AAs?$AAe?$AAl?$AAf?$AA_?$AAx?$AA8?$AA6?$AA?2?$AAc@ 100523b8     LIBCMTD:wcsncat_s.obj
 0002:00002424       ??_C@_1BE@KPKIKKCF@?$AAw?$AAc?$AAs?$AAn?$AAc?$AAa?$AAt?$AA_?$AAs?$AA?$AA@ 10052424     LIBCMTD:wcsncat_s.obj
 0002:00002438       ??_C@_1BI@BGOHAHKC@?$AAm?$AAs?$AAc?$AAo?$AAr?$AAe?$AAe?$AA?4?$AAd?$AAl?$AAl?$AA?$AA@ 10052438     LIBCMTD:crt0dat.obj
 0002:00002450       ??_C@_0P@MIGLKIOC@CorExitProcess?$AA@ 10052450     LIBCMTD:crt0dat.obj
 0002:00002460       ??_C@_1GC@DGCPEDNJ@?$AAf?$AA?3?$AA?2?$AAd?$AAd?$AA?2?$AAv?$AAc?$AAt?$AAo?$AAo?$AAl?$AAs?$AA?2?$AAc?$AAr?$AAt?$AA_?$AAb?$AAl?$AAd?$AA?2?$AAs?$AAe?$AAl?$AAf?$AA_?$AAx?$AA8?$AA6?$AA?2?$AAc@ 10052460     LIBCMTD:crt0dat.obj
 0002:000024c4       ??_C@_1BK@PNLDCCDP@?$AA_?$AAg?$AAe?$AAt?$AA_?$AAw?$AAp?$AAg?$AAm?$AAp?$AAt?$AAr?$AA?$AA@ 100524c4     LIBCMTD:crt0dat.obj
 0002:000024e0       ??_C@_1CC@CDIPMFPD@?$AA_?$AAw?$AAp?$AAg?$AAm?$AAp?$AAt?$AAr?$AA?5?$AA?$CB?$AA?$DN?$AA?5?$AAN?$AAU?$AAL?$AAL?$AA?$AA@ 100524e0     LIBCMTD:crt0dat.obj
 0002:00002504       ??_C@_1BI@COAAPHJK@?$AA_?$AAg?$AAe?$AAt?$AA_?$AAp?$AAg?$AAm?$AAp?$AAt?$AAr?$AA?$AA@ 10052504     LIBCMTD:crt0dat.obj
 0002:0000251c       ??_C@_1CA@BBNAFCKO@?$AA_?$AAp?$AAg?$AAm?$AAp?$AAt?$AAr?$AA?5?$AA?$CB?$AA?$DN?$AA?5?$AAN?$AAU?$AAL?$AAL?$AA?$AA@ 1005251c     LIBCMTD:crt0dat.obj
 0002:0000253c       ??_C@_1BK@DJNILIMN@?$AAp?$AAa?$AAt?$AAh?$AA?5?$AA?$CB?$AA?$DN?$AA?5?$AAN?$AAU?$AAL?$AAL?$AA?$AA@ 1005253c     LIBCMTD:crt0dat.obj
 0002:00002558       ??_C@_1DG@KANBJOCK@?$AA_?$AA_?$AAc?$AAo?$AAp?$AAy?$AA_?$AAp?$AAa?$AAt?$AAh?$AA_?$AAt?$AAo?$AA_?$AAw?$AAi?$AAd?$AAe?$AA_?$AAs?$AAt?$AAr?$AAi?$AAn?$AAg?$AA?$AA@ 10052558     LIBCMTD:crt0dat.obj
 0002:00002590       ??_C@_1CA@BGODLPHH@?$AAo?$AAu?$AAt?$AAP?$AAa?$AAt?$AAh?$AA?5?$AA?$CB?$AA?$DN?$AA?5?$AAN?$AAU?$AAL?$AAL?$AA?$AA@ 10052590     LIBCMTD:crt0dat.obj
 0002:000025b0       ??_C@_0DB@LJJKGJFF@f?3?2dd?2vctools?2crt_bld?2self_x86?2c@ 100525b0     LIBCMTD:crt0dat.obj
 0002:000025e4       ??_C@_1DE@BCNCAIK@?$AA?$CI?$AA?$CC?$AAI?$AAn?$AAv?$AAa?$AAl?$AAi?$AAd?$AA?5?$AAe?$AAr?$AAr?$AAo?$AAr?$AA_?$AAm?$AAo?$AAd?$AAe?$AA?$CC?$AA?0?$AA?5?$AA0?$AA?$CJ?$AA?$AA@ 100525e4     LIBCMTD:errmode.obj
 0002:00002618       ??_C@_1GC@FGMGFCNB@?$AAf?$AA?3?$AA?2?$AAd?$AAd?$AA?2?$AAv?$AAc?$AAt?$AAo?$AAo?$AAl?$AAs?$AA?2?$AAc?$AAr?$AAt?$AA_?$AAb?$AAl?$AAd?$AA?2?$AAs?$AAe?$AAl?$AAf?$AA_?$AAx?$AA8?$AA6?$AA?2?$AAc@ 10052618     LIBCMTD:errmode.obj
 0002:0000267c       ??_C@_1CA@LFDHAMEM@?$AA_?$AAs?$AAe?$AAt?$AA_?$AAe?$AAr?$AAr?$AAo?$AAr?$AA_?$AAm?$AAo?$AAd?$AAe?$AA?$AA@ 1005267c     LIBCMTD:errmode.obj
 0002:0000269c       ??_C@_1BI@ICGGMGLK@?$AAb?$AAu?$AAf?$AA?5?$AA?$CB?$AA?$DN?$AA?5?$AAN?$AAU?$AAL?$AAL?$AA?$AA@ 1005269c     LIBCMTD:xtows.obj
 0002:000026b8       ??_C@_1FM@MFCBFCGB@?$AAf?$AA?3?$AA?2?$AAd?$AAd?$AA?2?$AAv?$AAc?$AAt?$AAo?$AAo?$AAl?$AAs?$AA?2?$AAc?$AAr?$AAt?$AA_?$AAb?$AAl?$AAd?$AA?2?$AAs?$AAe?$AAl?$AAf?$AA_?$AAx?$AA8?$AA6?$AA?2?$AAc@ 100526b8     LIBCMTD:xtows.obj
 0002:00002714       ??_C@_1O@NCBFODOE@?$AAx?$AAt?$AAo?$AAw?$AA_?$AAs?$AA?$AA@ 10052714     LIBCMTD:xtows.obj
 0002:00002728       ??_C@_1FA@MKGGAGEI@?$AAs?$AAi?$AAz?$AAe?$AAI?$AAn?$AAT?$AAC?$AAh?$AAa?$AAr?$AAs?$AA?5?$AA?$DO?$AA?5?$AA?$CI?$AAs?$AAi?$AAz?$AAe?$AA_?$AAt?$AA?$CJ?$AA?$CI?$AAi?$AAs?$AA_?$AAn?$AAe?$AAg?$AA?5?$AA?$DP@ 10052728     LIBCMTD:xtows.obj
 0002:00002778       ??_C@_1DE@PCJGDBBD@?$AA2?$AA?5?$AA?$DM?$AA?$DN?$AA?5?$AAr?$AAa?$AAd?$AAi?$AAx?$AA?5?$AA?$CG?$AA?$CG?$AA?5?$AAr?$AAa?$AAd?$AAi?$AAx?$AA?5?$AA?$DM?$AA?$DN?$AA?5?$AA3?$AA6?$AA?$AA@ 10052778     LIBCMTD:xtows.obj
 0002:000027ac       ??_C@_1CM@HABGDNLJ@?$AAl?$AAe?$AAn?$AAg?$AAt?$AAh?$AA?5?$AA?$DM?$AA?5?$AAs?$AAi?$AAz?$AAe?$AAI?$AAn?$AAT?$AAC?$AAh?$AAa?$AAr?$AAs?$AA?$AA@ 100527ac     LIBCMTD:xtows.obj
 0002:000027d8       ??_C@_1BC@HDEJCFPB@?$AAx?$AA6?$AA4?$AAt?$AAo?$AAw?$AA_?$AAs?$AA?$AA@ 100527d8     LIBCMTD:xtows.obj
 0002:000027f0       ??_C@_1GC@FPPJLAOD@?$AAf?$AA?3?$AA?2?$AAd?$AAd?$AA?2?$AAv?$AAc?$AAt?$AAo?$AAo?$AAl?$AAs?$AA?2?$AAc?$AAr?$AAt?$AA_?$AAb?$AAl?$AAd?$AA?2?$AAs?$AAe?$AAl?$AAf?$AA_?$AAx?$AA8?$AA6?$AA?2?$AAc@ 100527f0     LIBCMTD:setvbuf.obj
 0002:00002854       ??_C@_1BA@OGODIODK@?$AAs?$AAe?$AAt?$AAv?$AAb?$AAu?$AAf?$AA?$AA@ 10052854     LIBCMTD:setvbuf.obj
 0002:00002868       ??_C@_1HC@CBFEDAGG@?$AA?$CI?$AAt?$AAy?$AAp?$AAe?$AA?5?$AA?$DN?$AA?$DN?$AA?5?$AA_?$AAI?$AAO?$AAN?$AAB?$AAF?$AA?$CJ?$AA?5?$AA?$HM?$AA?$HM?$AA?5?$AA?$CI?$AAt?$AAy?$AAp?$AAe?$AA?5?$AA?$DN?$AA?$DN?$AA?5?$AA_?$AAI?$AAO@ 10052868     LIBCMTD:setvbuf.obj
 0002:000028e0       ??_C@_1EG@IJNJIDNB@?$AA?$CI?$AA?$CI?$AA2?$AA?5?$AA?$DM?$AA?$DN?$AA?5?$AAs?$AAi?$AAz?$AAe?$AA?$CJ?$AA?5?$AA?$CG?$AA?$CG?$AA?5?$AA?$CI?$AAs?$AAi?$AAz?$AAe?$AA?5?$AA?$DM?$AA?$DN?$AA?5?$AAI?$AAN?$AAT?$AA_?$AAM?$AAA?$AAX@ 100528e0     LIBCMTD:setvbuf.obj
 0002:00002928       ??_C@_0DB@MIGHMKAN@f?3?2dd?2vctools?2crt_bld?2self_x86?2c@ 10052928     LIBCMTD:setvbuf.obj
 0002:00002960       ??_C@_1GE@NIBJAMDO@?$AAf?$AA?3?$AA?2?$AAd?$AAd?$AA?2?$AAv?$AAc?$AAt?$AAo?$AAo?$AAl?$AAs?$AA?2?$AAc?$AAr?$AAt?$AA_?$AAb?$AAl?$AAd?$AA?2?$AAs?$AAe?$AAl?$AAf?$AA_?$AAx?$AA8?$AA6?$AA?2?$AAc@ 10052960     LIBCMTD:fwprintf.obj
 0002:000029c4       ??_C@_1BC@BHLPNJBO@?$AAf?$AAw?$AAp?$AAr?$AAi?$AAn?$AAt?$AAf?$AA?$AA@ 100529c4     LIBCMTD:fwprintf.obj
 0002:000029d8       ??_C@_1GE@KINELFI@?$AAf?$AA?3?$AA?2?$AAd?$AAd?$AA?2?$AAv?$AAc?$AAt?$AAo?$AAo?$AAl?$AAs?$AA?2?$AAc?$AAr?$AAt?$AA_?$AAb?$AAl?$AAd?$AA?2?$AAs?$AAe?$AAl?$AAf?$AA_?$AAx?$AA8?$AA6?$AA?2?$AAc@ 100529d8     LIBCMTD:vswprnc.obj
 0002:00002a3c       ??_C@_1CE@IGKFIJFD@?$AA_?$AAv?$AAs?$AAw?$AAp?$AAr?$AAi?$AAn?$AAt?$AAf?$AA_?$AAh?$AAe?$AAl?$AAp?$AAe?$AAr?$AA?$AA@ 10052a3c     LIBCMTD:vswprnc.obj
 0002:00002a60       ??_C@_1EC@FABAOFFO@?$AA?$CI?$AAc?$AAo?$AAu?$AAn?$AAt?$AA?5?$AA?$DN?$AA?$DN?$AA?5?$AA0?$AA?$CJ?$AA?5?$AA?$HM?$AA?$HM?$AA?5?$AA?$CI?$AAs?$AAt?$AAr?$AAi?$AAn?$AAg?$AA?5?$AA?$CB?$AA?$DN?$AA?5?$AAN?$AAU?$AAL?$AAL?$AA?$CJ@ 10052a60     LIBCMTD:vswprnc.obj
 0002:00002aa4       ??_C@_1BO@MLMCMBKN@?$AAf?$AAo?$AAr?$AAm?$AAa?$AAt?$AA?5?$AA?$CB?$AA?$DN?$AA?5?$AAN?$AAU?$AAL?$AAL?$AA?$AA@ 10052aa4     LIBCMTD:vswprnc.obj
 0002:00002ac4       ??_C@_1BO@OALHJLCI@?$AA_?$AAv?$AAs?$AAw?$AAp?$AAr?$AAi?$AAn?$AAt?$AAf?$AA_?$AAs?$AA_?$AAl?$AA?$AA@ 10052ac4     LIBCMTD:vswprnc.obj
 0002:00002ae8       ??_C@_1EE@MPCHJFGP@?$AAs?$AAt?$AAr?$AAi?$AAn?$AAg?$AA?5?$AA?$CB?$AA?$DN?$AA?5?$AAN?$AAU?$AAL?$AAL?$AA?5?$AA?$CG?$AA?$CG?$AA?5?$AAs?$AAi?$AAz?$AAe?$AAI?$AAn?$AAW?$AAo?$AAr?$AAd?$AAs?$AA?5?$AA?$DO?$AA?5@ 10052ae8     LIBCMTD:vswprnc.obj
 0002:00002b2c       ??_C@_1DA@HPBFKMEB@?$AA?$CI?$AA?$CC?$AAB?$AAu?$AAf?$AAf?$AAe?$AAr?$AA?5?$AAt?$AAo?$AAo?$AA?5?$AAs?$AAm?$AAa?$AAl?$AAl?$AA?$CC?$AA?0?$AA?5?$AA0?$AA?$CJ?$AA?$AA@ 10052b2c     LIBCMTD:vswprnc.obj
 0002:00002b5c       ??_C@_1CA@BKFKMJFF@?$AA_?$AAv?$AAs?$AAn?$AAw?$AAp?$AAr?$AAi?$AAn?$AAt?$AAf?$AA_?$AAs?$AA_?$AAl?$AA?$AA@ 10052b5c     LIBCMTD:vswprnc.obj
 0002:00002b7c       ??_C@_0DA@ELJOOIJF@f?3?2dd?2vctools?2crt_bld?2self_x86?2c@ 10052b7c     LIBCMTD:winsig.obj
 0002:00002bac       ??_C@_1DO@MLNEDKGB@?$AA?$CI?$AA?$CC?$AAI?$AAn?$AAv?$AAa?$AAl?$AAi?$AAd?$AA?5?$AAs?$AAi?$AAg?$AAn?$AAa?$AAl?$AA?5?$AAo?$AAr?$AA?5?$AAe?$AAr?$AAr?$AAo?$AAr?$AA?$CC?$AA?0?$AA?5?$AA0?$AA?$CJ?$AA?$AA@ 10052bac     LIBCMTD:winsig.obj
 0002:00002bf0       ??_C@_1GA@DBECNFG@?$AAf?$AA?3?$AA?2?$AAd?$AAd?$AA?2?$AAv?$AAc?$AAt?$AAo?$AAo?$AAl?$AAs?$AA?2?$AAc?$AAr?$AAt?$AA_?$AAb?$AAl?$AAd?$AA?2?$AAs?$AAe?$AAl?$AAf?$AA_?$AAx?$AA8?$AA6?$AA?2?$AAc@ 10052bf0     LIBCMTD:winsig.obj
 0002:00002c50       ??_C@_1O@EJLDHPPL@?$AAs?$AAi?$AAg?$AAn?$AAa?$AAl?$AA?$AA@ 10052c50     LIBCMTD:winsig.obj
 0002:00002c60       ??_C@_1M@DMJEIKHL@?$AAr?$AAa?$AAi?$AAs?$AAe?$AA?$AA@ 10052c60     LIBCMTD:winsig.obj
 0002:00002c6c       ??_C@_1BG@GOEBHBDC@?$AAU?$AAS?$AAE?$AAR?$AA3?$AA2?$AA?4?$AAD?$AAL?$AAL?$AA?$AA@ 10052c6c     LIBCMTD:crtmboxw.obj
 0002:00002c84       ??_C@_0M@DLDCCGNP@MessageBoxW?$AA@ 10052c84     LIBCMTD:crtmboxw.obj
 0002:00002c90       ??_C@_0BA@HNOPNCHB@GetActiveWindow?$AA@ 10052c90     LIBCMTD:crtmboxw.obj
 0002:00002ca0       ??_C@_0BD@HHGDFDBJ@GetLastActivePopup?$AA@ 10052ca0     LIBCMTD:crtmboxw.obj
 0002:00002cb4       ??_C@_0BK@DEKFELLI@GetUserObjectInformationW?$AA@ 10052cb4     LIBCMTD:crtmboxw.obj
 0002:00002cd0       ??_C@_0BI@DFKBFLJE@GetProcessWindowStation?$AA@ 10052cd0     LIBCMTD:crtmboxw.obj
 0002:00002da0       ??_C@_1FK@PGACCAFB@?$AAR?$AA6?$AA0?$AA0?$AA2?$AA?$AN?$AA?6?$AA?9?$AA?5?$AAf?$AAl?$AAo?$AAa?$AAt?$AAi?$AAn?$AAg?$AA?5?$AAp?$AAo?$AAi?$AAn?$AAt?$AA?5?$AAs?$AAu?$AAp?$AAp?$AAo?$AAr?$AAt?$AA?5@ 10052da0     LIBCMTD:crt0msg.obj
 0002:00002e00       ??_C@_1FE@LLNEDJMD@?$AAR?$AA6?$AA0?$AA0?$AA8?$AA?$AN?$AA?6?$AA?9?$AA?5?$AAn?$AAo?$AAt?$AA?5?$AAe?$AAn?$AAo?$AAu?$AAg?$AAh?$AA?5?$AAs?$AAp?$AAa?$AAc?$AAe?$AA?5?$AAf?$AAo?$AAr?$AA?5?$AAa?$AAr@ 10052e00     LIBCMTD:crt0msg.obj
 0002:00002e58       ??_C@_1FI@HONFMGBI@?$AAR?$AA6?$AA0?$AA0?$AA9?$AA?$AN?$AA?6?$AA?9?$AA?5?$AAn?$AAo?$AAt?$AA?5?$AAe?$AAn?$AAo?$AAu?$AAg?$AAh?$AA?5?$AAs?$AAp?$AAa?$AAc?$AAe?$AA?5?$AAf?$AAo?$AAr?$AA?5?$AAe?$AAn@ 10052e58     LIBCMTD:crt0msg.obj
 0002:00002eb0       ??_C@_1EG@BEHAGFJD@?$AAR?$AA6?$AA0?$AA1?$AA0?$AA?$AN?$AA?6?$AA?9?$AA?5?$AAa?$AAb?$AAo?$AAr?$AAt?$AA?$CI?$AA?$CJ?$AA?5?$AAh?$AAa?$AAs?$AA?5?$AAb?$AAe?$AAe?$AAn?$AA?5?$AAc?$AAa?$AAl?$AAl?$AAe?$AAd@ 10052eb0     LIBCMTD:crt0msg.obj
 0002:00002ef8       ??_C@_1FI@LOGNIKDM@?$AAR?$AA6?$AA0?$AA1?$AA6?$AA?$AN?$AA?6?$AA?9?$AA?5?$AAn?$AAo?$AAt?$AA?5?$AAe?$AAn?$AAo?$AAu?$AAg?$AAh?$AA?5?$AAs?$AAp?$AAa?$AAc?$AAe?$AA?5?$AAf?$AAo?$AAr?$AA?5?$AAt?$AAh@ 10052ef8     LIBCMTD:crt0msg.obj
 0002:00002f50       ??_C@_1FK@BEOGODMC@?$AAR?$AA6?$AA0?$AA1?$AA7?$AA?$AN?$AA?6?$AA?9?$AA?5?$AAu?$AAn?$AAe?$AAx?$AAp?$AAe?$AAc?$AAt?$AAe?$AAd?$AA?5?$AAm?$AAu?$AAl?$AAt?$AAi?$AAt?$AAh?$AAr?$AAe?$AAa?$AAd?$AA?5@ 10052f50     LIBCMTD:crt0msg.obj
 0002:00002fb0       ??_C@_1EC@JIBHAOPH@?$AAR?$AA6?$AA0?$AA1?$AA8?$AA?$AN?$AA?6?$AA?9?$AA?5?$AAu?$AAn?$AAe?$AAx?$AAp?$AAe?$AAc?$AAt?$AAe?$AAd?$AA?5?$AAh?$AAe?$AAa?$AAp?$AA?5?$AAe?$AAr?$AAr?$AAo?$AAr?$AA?$AN?$AA?6@ 10052fb0     LIBCMTD:crt0msg.obj
 0002:00002ff8       ??_C@_1FC@ECHBIFBC@?$AAR?$AA6?$AA0?$AA1?$AA9?$AA?$AN?$AA?6?$AA?9?$AA?5?$AAu?$AAn?$AAa?$AAb?$AAl?$AAe?$AA?5?$AAt?$AAo?$AA?5?$AAo?$AAp?$AAe?$AAn?$AA?5?$AAc?$AAo?$AAn?$AAs?$AAo?$AAl?$AAe?$AA?5@ 10052ff8     LIBCMTD:crt0msg.obj
 0002:00003050       ??_C@_1GK@FHCKBEFA@?$AAR?$AA6?$AA0?$AA2?$AA4?$AA?$AN?$AA?6?$AA?9?$AA?5?$AAn?$AAo?$AAt?$AA?5?$AAe?$AAn?$AAo?$AAu?$AAg?$AAh?$AA?5?$AAs?$AAp?$AAa?$AAc?$AAe?$AA?5?$AAf?$AAo?$AAr?$AA?5?$AA_?$AAo@ 10053050     LIBCMTD:crt0msg.obj
 0002:000030c0       ??_C@_1EM@MAADIHMB@?$AAR?$AA6?$AA0?$AA2?$AA5?$AA?$AN?$AA?6?$AA?9?$AA?5?$AAp?$AAu?$AAr?$AAe?$AA?5?$AAv?$AAi?$AAr?$AAt?$AAu?$AAa?$AAl?$AA?5?$AAf?$AAu?$AAn?$AAc?$AAt?$AAi?$AAo?$AAn?$AA?5?$AAc@ 100530c0     LIBCMTD:crt0msg.obj
 0002:00003110       ??_C@_1GK@MCAAGJMO@?$AAR?$AA6?$AA0?$AA2?$AA6?$AA?$AN?$AA?6?$AA?9?$AA?5?$AAn?$AAo?$AAt?$AA?5?$AAe?$AAn?$AAo?$AAu?$AAg?$AAh?$AA?5?$AAs?$AAp?$AAa?$AAc?$AAe?$AA?5?$AAf?$AAo?$AAr?$AA?5?$AAs?$AAt@ 10053110     LIBCMTD:crt0msg.obj
 0002:00003180       ??_C@_1GK@MFGOKLAG@?$AAR?$AA6?$AA0?$AA2?$AA7?$AA?$AN?$AA?6?$AA?9?$AA?5?$AAn?$AAo?$AAt?$AA?5?$AAe?$AAn?$AAo?$AAu?$AAg?$AAh?$AA?5?$AAs?$AAp?$AAa?$AAc?$AAe?$AA?5?$AAf?$AAo?$AAr?$AA?5?$AAl?$AAo@ 10053180     LIBCMTD:crt0msg.obj
 0002:000031f0       ??_C@_1EK@HHFLMAOL@?$AAR?$AA6?$AA0?$AA2?$AA8?$AA?$AN?$AA?6?$AA?9?$AA?5?$AAu?$AAn?$AAa?$AAb?$AAl?$AAe?$AA?5?$AAt?$AAo?$AA?5?$AAi?$AAn?$AAi?$AAt?$AAi?$AAa?$AAl?$AAi?$AAz?$AAe?$AA?5?$AAh?$AAe@ 100531f0     LIBCMTD:crt0msg.obj
 0002:0000323c       ??_C@_1DO@BMFCDCD@?$AAR?$AA6?$AA0?$AA3?$AA0?$AA?$AN?$AA?6?$AA?9?$AA?5?$AAC?$AAR?$AAT?$AA?5?$AAn?$AAo?$AAt?$AA?5?$AAi?$AAn?$AAi?$AAt?$AAi?$AAa?$AAl?$AAi?$AAz?$AAe?$AAd?$AA?$AN?$AA?6?$AA?$AA@ 1005323c     LIBCMTD:crt0msg.obj
 0002:00003280       ??_C@_1MG@ENCOOIDF@?$AAR?$AA6?$AA0?$AA3?$AA1?$AA?$AN?$AA?6?$AA?9?$AA?5?$AAA?$AAt?$AAt?$AAe?$AAm?$AAp?$AAt?$AA?5?$AAt?$AAo?$AA?5?$AAi?$AAn?$AAi?$AAt?$AAi?$AAa?$AAl?$AAi?$AAz?$AAe?$AA?5?$AAt@ 10053280     LIBCMTD:crt0msg.obj
 0002:00003348       ??_C@_1GG@GOPILAJP@?$AAR?$AA6?$AA0?$AA3?$AA2?$AA?$AN?$AA?6?$AA?9?$AA?5?$AAn?$AAo?$AAt?$AA?5?$AAe?$AAn?$AAo?$AAu?$AAg?$AAh?$AA?5?$AAs?$AAp?$AAa?$AAc?$AAe?$AA?5?$AAf?$AAo?$AAr?$AA?5?$AAl?$AAo@ 10053348     LIBCMTD:crt0msg.obj
 0002:000033b0       ??_C@_1BOO@KGEDBGAJ@?$AAR?$AA6?$AA0?$AA3?$AA3?$AA?$AN?$AA?6?$AA?9?$AA?5?$AAA?$AAt?$AAt?$AAe?$AAm?$AAp?$AAt?$AA?5?$AAt?$AAo?$AA?5?$AAu?$AAs?$AAe?$AA?5?$AAM?$AAS?$AAI?$AAL?$AA?5?$AAc?$AAo?$AAd@ 100533b0     LIBCMTD:crt0msg.obj
 0002:000035a0       ??_C@_1GG@MKFPEKFO@?$AAR?$AA6?$AA0?$AA3?$AA4?$AA?$AN?$AA?6?$AA?9?$AA?5?$AAi?$AAn?$AAc?$AAo?$AAn?$AAs?$AAi?$AAs?$AAt?$AAe?$AAn?$AAt?$AA?5?$AAo?$AAn?$AAe?$AAx?$AAi?$AAt?$AA?5?$AAb?$AAe?$AAg@ 100535a0     LIBCMTD:crt0msg.obj
 0002:00003608       ??_C@_1BO@BFCDCGC@?$AAD?$AAO?$AAM?$AAA?$AAI?$AAN?$AA?5?$AAe?$AAr?$AAr?$AAo?$AAr?$AA?$AN?$AA?6?$AA?$AA@ 10053608     LIBCMTD:crt0msg.obj
 0002:00003628       ??_C@_1BK@KMOMNAAI@?$AAS?$AAI?$AAN?$AAG?$AA?5?$AAe?$AAr?$AAr?$AAo?$AAr?$AA?$AN?$AA?6?$AA?$AA@ 10053628     LIBCMTD:crt0msg.obj
 0002:00003644       ??_C@_1BM@JBBEPPHI@?$AAT?$AAL?$AAO?$AAS?$AAS?$AA?5?$AAe?$AAr?$AAr?$AAo?$AAr?$AA?$AN?$AA?6?$AA?$AA@ 10053644     LIBCMTD:crt0msg.obj
 0002:00003660       ??_C@_15JNBOKNOG@?$AA?$AN?$AA?6?$AA?$AA@ 10053660     LIBCMTD:crt0msg.obj
 0002:00003668       ??_C@_1BO@BKOMIGKJ@?$AAr?$AAu?$AAn?$AAt?$AAi?$AAm?$AAe?$AA?5?$AAe?$AAr?$AAr?$AAo?$AAr?$AA?5?$AA?$AA@ 10053668     LIBCMTD:crt0msg.obj
 0002:00003688       ??_C@_1GC@HKOJBOFF@?$AAf?$AA?3?$AA?2?$AAd?$AAd?$AA?2?$AAv?$AAc?$AAt?$AAo?$AAo?$AAl?$AAs?$AA?2?$AAc?$AAr?$AAt?$AA_?$AAb?$AAl?$AAd?$AA?2?$AAs?$AAe?$AAl?$AAf?$AA_?$AAx?$AA8?$AA6?$AA?2?$AAc@ 10053688     LIBCMTD:crt0msg.obj
 0002:000036ec       ??_C@_1BI@EAHMBMEC@?$AA_?$AAN?$AAM?$AAS?$AAG?$AA_?$AAW?$AAR?$AAI?$AAT?$AAE?$AA?$AA@ 100536ec     LIBCMTD:crt0msg.obj
 0002:00003708       ??_C@_1KO@BKLCKNFL@?$AAw?$AAc?$AAs?$AAc?$AAp?$AAy?$AA_?$AAs?$AA?$CI?$AAo?$AAu?$AAt?$AAm?$AAs?$AAg?$AA?0?$AA?5?$AA?$CI?$AAs?$AAi?$AAz?$AAe?$AAo?$AAf?$AA?$CI?$AAo?$AAu?$AAt?$AAm?$AAs?$AAg?$AA?$CJ@ 10053708     LIBCMTD:crt0msg.obj
 0002:000037b8       ??_C@_1DE@JNGNBFGO@?$AAR?$AAu?$AAn?$AAt?$AAi?$AAm?$AAe?$AA?5?$AAE?$AAr?$AAr?$AAo?$AAr?$AA?$CB?$AA?6?$AA?6?$AAP?$AAr?$AAo?$AAg?$AAr?$AAa?$AAm?$AA?3?$AA?5?$AA?$AA@ 100537b8     LIBCMTD:crt0msg.obj
 0002:000037f0       ??_C@_1HK@FJJNAABO@?$AAw?$AAc?$AAs?$AAc?$AAp?$AAy?$AA_?$AAs?$AA?$CI?$AAp?$AAr?$AAo?$AAg?$AAn?$AAa?$AAm?$AAe?$AA?0?$AA?5?$AAp?$AAr?$AAo?$AAg?$AAn?$AAa?$AAm?$AAe?$AA_?$AAs?$AAi?$AAz?$AAe@ 100537f0     LIBCMTD:crt0msg.obj
 0002:00003870       ??_C@_1HI@FLHKGEBE@?$AAw?$AAc?$AAs?$AAn?$AAc?$AAp?$AAy?$AA_?$AAs?$AA?$CI?$AAp?$AAc?$AAh?$AA?0?$AA?5?$AAp?$AAr?$AAo?$AAg?$AAn?$AAa?$AAm?$AAe?$AA_?$AAs?$AAi?$AAz?$AAe?$AA?5?$AA?9?$AA?5?$AA?$CI@ 10053870     LIBCMTD:crt0msg.obj
 0002:000038e8       ??_C@_1IA@DCJGKHFO@?$AAw?$AAc?$AAs?$AAc?$AAa?$AAt?$AA_?$AAs?$AA?$CI?$AAo?$AAu?$AAt?$AAm?$AAs?$AAg?$AA?0?$AA?5?$AA?$CI?$AAs?$AAi?$AAz?$AAe?$AAo?$AAf?$AA?$CI?$AAo?$AAu?$AAt?$AAm?$AAs?$AAg?$AA?$CJ@ 100538e8     LIBCMTD:crt0msg.obj
 0002:00003968       ??_C@_1IG@NMONDPP@?$AAw?$AAc?$AAs?$AAc?$AAa?$AAt?$AA_?$AAs?$AA?$CI?$AAo?$AAu?$AAt?$AAm?$AAs?$AAg?$AA?0?$AA?5?$AA?$CI?$AAs?$AAi?$AAz?$AAe?$AAo?$AAf?$AA?$CI?$AAo?$AAu?$AAt?$AAm?$AAs?$AAg?$AA?$CJ@ 10053968     LIBCMTD:crt0msg.obj
 0002:00003a04       ??_C@_0BJ@HEGAHDFO@Stack?5pointer?5corruption?$AA@ 10053a04     LIBCMTD:userapi.obj
 0002:00003a20       ??_C@_0CK@FEGOIOPB@Cast?5to?5smaller?5type?5causing?5los@ 10053a20     LIBCMTD:userapi.obj
 0002:00003a4c       ??_C@_0BI@CIGMDCBH@Stack?5memory?5corruption?$AA@ 10053a4c     LIBCMTD:userapi.obj
 0002:00003a64       ??_C@_0CK@CNLNOEPB@Local?5variable?5used?5before?5initi@ 10053a64     LIBCMTD:userapi.obj
 0002:00003a90       ??_C@_0BP@OGBCLIBO@Stack?5around?5_alloca?5corrupted?$AA@ 10053a90     LIBCMTD:userapi.obj
 0002:00003ab0       ??_C@_0NM@DNEDKLDF@The?5value?5of?5ESP?5was?5not?5properl@ 10053ab0     LIBCMTD:chkesp.obj
 0002:00003b8c       ??_C@_00CNPNBAHC@?$AA@     10053b8c     LIBCMTD:chkesp.obj
 0002:00003b90       ??_C@_0DP@CBBAPGOP@f?3?2dd?2vctools?2crt_bld?2self_x86?2c@ 10053b90     LIBCMTD:chkesp.obj
 0002:00003bd0       ??_C@_1GO@NCCGBNKI@?$AAf?$AA?3?$AA?2?$AAd?$AAd?$AA?2?$AAv?$AAc?$AAt?$AAo?$AAo?$AAl?$AAs?$AA?2?$AAc?$AAr?$AAt?$AA_?$AAb?$AAl?$AAd?$AA?2?$AAs?$AAe?$AAl?$AAf?$AA_?$AAx?$AA8?$AA6?$AA?2?$AAc@ 10053bd0     LIBCMTD:cvt.obj
 0002:00003c40       ??_C@_1BE@OLBNEILL@?$AA_?$AAc?$AAf?$AAt?$AAo?$AAe?$AA2?$AA_?$AAl?$AA?$AA@ 10053c40     LIBCMTD:cvt.obj
 0002:00003c54       ??_C@_1CA@CBMNPEO@?$AAs?$AAi?$AAz?$AAe?$AAI?$AAn?$AAB?$AAy?$AAt?$AAe?$AAs?$AA?5?$AA?$DO?$AA?5?$AA0?$AA?$AA@ 10053c54     LIBCMTD:cvt.obj
 0002:00003c78       ??_C@_1HE@NACBNDPP@?$AAs?$AAi?$AAz?$AAe?$AAI?$AAn?$AAB?$AAy?$AAt?$AAe?$AAs?$AA?5?$AA?$DO?$AA?5?$AA?$CI?$AAs?$AAi?$AAz?$AAe?$AA_?$AAt?$AA?$CJ?$AA?$CI?$AA3?$AA?5?$AA?$CL?$AA?5?$AA?$CI?$AAn?$AAd?$AAe?$AAc@ 10053c78     LIBCMTD:cvt.obj
 0002:00003cf0       ??_C@_1LE@EOIFGNCJ@?$AAs?$AAt?$AAr?$AAc?$AAp?$AAy?$AA_?$AAs?$AA?$CI?$AAp?$AA?0?$AA?5?$AA?$CI?$AAs?$AAi?$AAz?$AAe?$AAI?$AAn?$AAB?$AAy?$AAt?$AAe?$AAs?$AA?5?$AA?$DN?$AA?$DN?$AA?5?$AA?$CI?$AAs?$AAi?$AAz@ 10053cf0     LIBCMTD:cvt.obj
 0002:00003da4       ??_C@_05KLBDPFGC@e?$CL000?$AA@ 10053da4     LIBCMTD:cvt.obj
 0002:00003dac       ??_C@_1BC@INKAPMHI@?$AA_?$AAc?$AAf?$AAt?$AAo?$AAe?$AA_?$AAl?$AA?$AA@ 10053dac     LIBCMTD:cvt.obj
 0002:00003dc0       ??_C@_1BC@JOKPCIC@?$AA_?$AAc?$AAf?$AAt?$AAo?$AAa?$AA_?$AAl?$AA?$AA@ 10053dc0     LIBCMTD:cvt.obj
 0002:00003dd8       ??_C@_1FC@IKIMAMJB@?$AAs?$AAi?$AAz?$AAe?$AAI?$AAn?$AAB?$AAy?$AAt?$AAe?$AAs?$AA?5?$AA?$DO?$AA?5?$AA?$CI?$AAs?$AAi?$AAz?$AAe?$AA_?$AAt?$AA?$CJ?$AA?$CI?$AA1?$AA?5?$AA?$CL?$AA?5?$AA4?$AA?5?$AA?$CL?$AA?5?$AAn@ 10053dd8     LIBCMTD:cvt.obj
 0002:00003e2c       ??_C@_1BE@CKPDLI@?$AA_?$AAc?$AAf?$AAt?$AAo?$AAf?$AA2?$AA_?$AAl?$AA?$AA@ 10053e2c     LIBCMTD:cvt.obj
 0002:00003e40       ??_C@_1BC@DCPPLJL@?$AA_?$AAc?$AAf?$AAt?$AAo?$AAf?$AA_?$AAl?$AA?$AA@ 10053e40     LIBCMTD:cvt.obj
 0002:00003e54       ??_C@_1BC@MPIFPLAF@?$AA_?$AAc?$AAf?$AAt?$AAo?$AAg?$AA_?$AAl?$AA?$AA@ 10053e54     LIBCMTD:cvt.obj
 0002:00003e68       __real@0000000000000000    10053e68     LIBCMTD:cvt.obj
 0002:00003e70       ??_C@_1GG@PHGJJHBC@?$AAf?$AA?3?$AA?2?$AAd?$AAd?$AA?2?$AAv?$AAc?$AAt?$AAo?$AAo?$AAl?$AAs?$AA?2?$AAc?$AAr?$AAt?$AA_?$AAb?$AAl?$AAd?$AA?2?$AAs?$AAe?$AAl?$AAf?$AA_?$AAx?$AA8?$AA6?$AA?2?$AAc@ 10053e70     LIBCMTD:fp8.obj
 0002:00003ed8       ??_C@_1CK@JMKHCBEI@?$AA_?$AAs?$AAe?$AAt?$AAd?$AAe?$AAf?$AAa?$AAu?$AAl?$AAt?$AAp?$AAr?$AAe?$AAc?$AAi?$AAs?$AAi?$AAo?$AAn?$AA?$AA@ 10053ed8     LIBCMTD:fp8.obj
 0002:00003f08       ??_C@_1GE@KOCFNGPB@?$AA_?$AAc?$AAo?$AAn?$AAt?$AAr?$AAo?$AAl?$AAf?$AAp?$AA_?$AAs?$AA?$CI?$AA?$CI?$AA?$CI?$AAv?$AAo?$AAi?$AAd?$AA?5?$AA?$CK?$AA?$CJ?$AA0?$AA?$CJ?$AA?0?$AA?5?$AA0?$AAx?$AA0?$AA0?$AA0?$AA1@ 10053f08     LIBCMTD:fp8.obj
 0002:00003f6c       ??_C@_0CP@MKONOLCI@f?3?2dd?2vctools?2crt_bld?2self_x86?2c@ 10053f6c     LIBCMTD:mlock.obj
 0002:00003fb0       ??_C@_04HJMOFLDF@Free?$AA@ 10053fb0     LIBCMTD:dbgheap.obj
 0002:00003fb8       ??_C@_06EFAGIKOH@Normal?$AA@ 10053fb8     LIBCMTD:dbgheap.obj
 0002:00003fc0       ??_C@_03OGPFLFLO@CRT?$AA@  10053fc0     LIBCMTD:dbgheap.obj
 0002:00003fc4       ??_C@_06KMEJCCGM@Ignore?$AA@ 10053fc4     LIBCMTD:dbgheap.obj
 0002:00003fcc       ??_C@_06PJIGMIJB@Client?$AA@ 10053fcc     LIBCMTD:dbgheap.obj
 0002:00003fd4       ??_C@_1CE@LJFEPPMP@?$AA_?$AAC?$AAr?$AAt?$AAC?$AAh?$AAe?$AAc?$AAk?$AAM?$AAe?$AAm?$AAo?$AAr?$AAy?$AA?$CI?$AA?$CJ?$AA?$AA@ 10053fd4     LIBCMTD:dbgheap.obj
 0002:00003ff8       ??_C@_1GC@DNJKKEAA@?$AAf?$AA?3?$AA?2?$AAd?$AAd?$AA?2?$AAv?$AAc?$AAt?$AAo?$AAo?$AAl?$AAs?$AA?2?$AAc?$AAr?$AAt?$AA_?$AAb?$AAl?$AAd?$AA?2?$AAs?$AAe?$AAl?$AAf?$AA_?$AAx?$AA8?$AA6?$AA?2?$AAc@ 10053ff8     LIBCMTD:dbgheap.obj
 0002:0000405c       ??_C@_0DF@BBEGIFEK@Client?5hook?5allocation?5failure?5a@ 1005405c     LIBCMTD:dbgheap.obj
 0002:00004094       ??_C@_0CB@CCLOLAHO@Client?5hook?5allocation?5failure?4?6@ 10054094     LIBCMTD:dbgheap.obj
 0002:000040b8       ??_C@_02DKCKIIND@?$CFs?$AA@ 100540b8     LIBCMTD:dbgheap.obj
 0002:000040bc       ??_C@_0CF@BICKFLAF@Invalid?5allocation?5size?3?5?$CFIu?5byt@ 100540bc     LIBCMTD:dbgheap.obj
 0002:000040e4       ??_C@_0DC@JEMAGEKG@Error?3?5memory?5allocation?3?5bad?5me@ 100540e4     LIBCMTD:dbgheap.obj
 0002:00004118       ??_C@_0DI@KKJPDPGM@Client?5hook?5re?9allocation?5failur@ 10054118     LIBCMTD:dbgheap.obj
 0002:00004150       ??_C@_0CE@DOFMDOL@Client?5hook?5re?9allocation?5failur@ 10054150     LIBCMTD:dbgheap.obj
 0002:00004178       ??_C@_0ED@GPCPBAGP@Invalid?5allocation?5size?3?5?$CFIu?5byt@ 10054178     LIBCMTD:dbgheap.obj
 0002:000041c0       ??_C@_0FA@EFEIGJKG@Error?3?5memory?5allocation?3?5bad?5me@ 100541c0     LIBCMTD:dbgheap.obj
 0002:00004210       ??_C@_0EM@LGFLMAGJ@The?5Block?5at?50x?$CFp?5was?5allocated?5@ 10054210     LIBCMTD:dbgheap.obj
 0002:00004260       ??_C@_1EE@GFOPCECE@?$AA_?$AAC?$AAr?$AAt?$AAI?$AAs?$AAV?$AAa?$AAl?$AAi?$AAd?$AAH?$AAe?$AAa?$AAp?$AAP?$AAo?$AAi?$AAn?$AAt?$AAe?$AAr?$AA?$CI?$AAp?$AAU?$AAs?$AAe?$AAr?$AAD?$AAa?$AAt?$AAa@ 10054260     LIBCMTD:dbgheap.obj
 0002:000042a8       ??_C@_1IK@DCPKDGNH@?$AAp?$AAO?$AAl?$AAd?$AAB?$AAl?$AAo?$AAc?$AAk?$AA?9?$AA?$DO?$AAn?$AAL?$AAi?$AAn?$AAe?$AA?5?$AA?$DN?$AA?$DN?$AA?5?$AAI?$AAG?$AAN?$AAO?$AAR?$AAE?$AA_?$AAL?$AAI?$AAN?$AAE?$AA?5@ 100542a8     LIBCMTD:dbgheap.obj
 0002:00004334       ??_C@_0DA@HFBKENN@Error?3?5possible?5heap?5corruption?5@ 10054334     LIBCMTD:dbgheap.obj
 0002:00004368       ??_C@_1GE@PCKLOLAO@?$AAf?$AAR?$AAe?$AAa?$AAl?$AAl?$AAo?$AAc?$AA?5?$AA?$HM?$AA?$HM?$AA?5?$AA?$CI?$AA?$CB?$AAf?$AAR?$AAe?$AAa?$AAl?$AAl?$AAo?$AAc?$AA?5?$AA?$CG?$AA?$CG?$AA?5?$AAp?$AAN?$AAe?$AAw?$AAB?$AAl@ 10054368     LIBCMTD:dbgheap.obj
 0002:000043cc       ??_C@_1DC@GEFKNOOL@?$AA_?$AAp?$AAL?$AAa?$AAs?$AAt?$AAB?$AAl?$AAo?$AAc?$AAk?$AA?5?$AA?$DN?$AA?$DN?$AA?5?$AAp?$AAO?$AAl?$AAd?$AAB?$AAl?$AAo?$AAc?$AAk?$AA?$AA@ 100543cc     LIBCMTD:dbgheap.obj
 0002:00004400       ??_C@_1DE@KOOKLFBB@?$AA_?$AAp?$AAF?$AAi?$AAr?$AAs?$AAt?$AAB?$AAl?$AAo?$AAc?$AAk?$AA?5?$AA?$DN?$AA?$DN?$AA?5?$AAp?$AAO?$AAl?$AAd?$AAB?$AAl?$AAo?$AAc?$AAk?$AA?$AA@ 10054400     LIBCMTD:dbgheap.obj
 0002:00004434       ??_C@_1CE@CJACEFBA@?$AAp?$AAU?$AAs?$AAe?$AAr?$AAD?$AAa?$AAt?$AAa?$AA?5?$AA?$CB?$AA?$DN?$AA?5?$AAN?$AAU?$AAL?$AAL?$AA?$AA@ 10054434     LIBCMTD:dbgheap.obj
 0002:00004458       ??_C@_1BI@HAPNGHDP@?$AA_?$AAe?$AAx?$AAp?$AAa?$AAn?$AAd?$AA_?$AAd?$AAb?$AAg?$AA?$AA@ 10054458     LIBCMTD:dbgheap.obj
 0002:00004470       ??_C@_0EJ@HEIBCIMJ@The?5Block?5at?50x?$CFp?5was?5allocated?5@ 10054470     LIBCMTD:dbgheap.obj
 0002:000044bc       ??_C@_0BL@KEIPLFAC@Client?5hook?5free?5failure?4?6?$AA@ 100544bc     LIBCMTD:dbgheap.obj
 0002:000044d8       ??_C@_1EO@LHDAJOCM@?$AA_?$AAB?$AAL?$AAO?$AAC?$AAK?$AA_?$AAT?$AAY?$AAP?$AAE?$AA_?$AAI?$AAS?$AA_?$AAV?$AAA?$AAL?$AAI?$AAD?$AA?$CI?$AAp?$AAH?$AAe?$AAa?$AAd?$AA?9?$AA?$DO?$AAn?$AAB?$AAl?$AAo@ 100544d8     LIBCMTD:dbgheap.obj
 0002:00004528       ??_C@_0KI@JGFOHMEB@HEAP?5CORRUPTION?5DETECTED?3?5before@ 10054528     LIBCMTD:dbgheap.obj
 0002:000045d0       ??_C@_0IK@PJCGLBOB@HEAP?5CORRUPTION?5DETECTED?3?5before@ 100545d0     LIBCMTD:dbgheap.obj
 0002:00004660       ??_C@_0KE@MBMNHHHN@HEAP?5CORRUPTION?5DETECTED?3?5after?5@ 10054660     LIBCMTD:dbgheap.obj
 0002:00004708       ??_C@_0IG@LEMBDCJK@HEAP?5CORRUPTION?5DETECTED?3?5after?5@ 10054708     LIBCMTD:dbgheap.obj
 0002:00004790       ??_C@_1HK@HPCBMDFG@?$AAp?$AAH?$AAe?$AAa?$AAd?$AA?9?$AA?$DO?$AAn?$AAL?$AAi?$AAn?$AAe?$AA?5?$AA?$DN?$AA?$DN?$AA?5?$AAI?$AAG?$AAN?$AAO?$AAR?$AAE?$AA_?$AAL?$AAI?$AAN?$AAE?$AA?5?$AA?$CG?$AA?$CG?$AA?5?$AAp@ 10054790     LIBCMTD:dbgheap.obj
 0002:0000480c       ??_C@_1DM@ODCJIDCP@?$AAp?$AAH?$AAe?$AAa?$AAd?$AA?9?$AA?$DO?$AAn?$AAB?$AAl?$AAo?$AAc?$AAk?$AAU?$AAs?$AAe?$AA?5?$AA?$DN?$AA?$DN?$AA?5?$AAn?$AAB?$AAl?$AAo?$AAc?$AAk?$AAU?$AAs?$AAe?$AA?$AA@ 1005480c     LIBCMTD:dbgheap.obj
 0002:00004848       ??_C@_1CK@DMAGEMBG@?$AA_?$AAp?$AAL?$AAa?$AAs?$AAt?$AAB?$AAl?$AAo?$AAc?$AAk?$AA?5?$AA?$DN?$AA?$DN?$AA?5?$AAp?$AAH?$AAe?$AAa?$AAd?$AA?$AA@ 10054848     LIBCMTD:dbgheap.obj
 0002:00004874       ??_C@_1CM@MMAADDMD@?$AA_?$AAp?$AAF?$AAi?$AAr?$AAs?$AAt?$AAB?$AAl?$AAo?$AAc?$AAk?$AA?5?$AA?$DN?$AA?$DN?$AA?5?$AAp?$AAH?$AAe?$AAa?$AAd?$AA?$AA@ 10054874     LIBCMTD:dbgheap.obj
 0002:000048a0       ??_C@_1BG@MBKOGDLD@?$AA_?$AAm?$AAs?$AAi?$AAz?$AAe?$AA_?$AAd?$AAb?$AAg?$AA?$AA@ 100548a0     LIBCMTD:dbgheap.obj
 0002:000048b8       ??_C@_0CE@MKKHMBMK@_heapchk?5fails?5with?5_HEAPBADBEGI@ 100548b8     LIBCMTD:dbgheap.obj
 0002:000048dc       ??_C@_0CD@CPKEAPBD@_heapchk?5fails?5with?5_HEAPBADNODE@ 100548dc     LIBCMTD:dbgheap.obj
 0002:00004900       ??_C@_0CC@MJGLGBDG@_heapchk?5fails?5with?5_HEAPBADEND?4@ 10054900     LIBCMTD:dbgheap.obj
 0002:00004924       ??_C@_0CC@MFFCHFHO@_heapchk?5fails?5with?5_HEAPBADPTR?4@ 10054924     LIBCMTD:dbgheap.obj
 0002:00004948       ??_C@_0CL@HNNNMKMJ@_heapchk?5fails?5with?5unknown?5retu@ 10054948     LIBCMTD:dbgheap.obj
 0002:00004974       ??_C@_07OHKEFPKJ@DAMAGED?$AA@ 10054974     LIBCMTD:dbgheap.obj
 0002:00004980       ??_C@_0KA@IHNJJKPL@HEAP?5CORRUPTION?5DETECTED?3?5on?5top@ 10054980     LIBCMTD:dbgheap.obj
 0002:00004a20       ??_C@_0IC@BBJIOOJH@HEAP?5CORRUPTION?5DETECTED?3?5on?5top@ 10054a20     LIBCMTD:dbgheap.obj
 0002:00004aa8       ??_C@_0EG@DGJMPDBH@?$CFhs?5located?5at?50x?$CFp?5is?5?$CFIu?5bytes@ 10054aa8     LIBCMTD:dbgheap.obj
 0002:00004af0       ??_C@_0CI@JMLBEDHJ@?$CFhs?5located?5at?50x?$CFp?5is?5?$CFIu?5bytes@ 10054af0     LIBCMTD:dbgheap.obj
 0002:00004b18       ??_C@_1BHO@NNANJNF@?$AA?$CI?$AAf?$AAN?$AAe?$AAw?$AAB?$AAi?$AAt?$AAs?$AA?$DN?$AA?$DN?$AA_?$AAC?$AAR?$AAT?$AAD?$AAB?$AAG?$AA_?$AAR?$AAE?$AAP?$AAO?$AAR?$AAT?$AA_?$AAF?$AAL?$AAA?$AAG?$AA?$CJ?$AA?5@ 10054b18     LIBCMTD:dbgheap.obj
 0002:00004c98       ??_C@_1BO@GJFDNMNF@?$AA_?$AAC?$AAr?$AAt?$AAS?$AAe?$AAt?$AAD?$AAb?$AAg?$AAF?$AAl?$AAa?$AAg?$AA?$AA@ 10054c98     LIBCMTD:dbgheap.obj
 0002:00004cb8       ??_C@_1BI@CJGCEEDL@?$AAp?$AAf?$AAn?$AA?5?$AA?$CB?$AA?$DN?$AA?5?$AAN?$AAU?$AAL?$AAL?$AA?$AA@ 10054cb8     LIBCMTD:dbgheap.obj
 0002:00004cd0       ??_C@_1DE@GJCKCKEC@?$AA_?$AAC?$AAr?$AAt?$AAD?$AAo?$AAF?$AAo?$AAr?$AAA?$AAl?$AAl?$AAC?$AAl?$AAi?$AAe?$AAn?$AAt?$AAO?$AAb?$AAj?$AAe?$AAc?$AAt?$AAs?$AA?$AA@ 10054cd0     LIBCMTD:dbgheap.obj
 0002:00004d04       ??_C@_1BM@MIMANDHC@?$AAs?$AAt?$AAa?$AAt?$AAe?$AA?5?$AA?$CB?$AA?$DN?$AA?5?$AAN?$AAU?$AAL?$AAL?$AA?$AA@ 10054d04     LIBCMTD:dbgheap.obj
 0002:00004d20       ??_C@_1CE@NJJKELF@?$AA_?$AAC?$AAr?$AAt?$AAM?$AAe?$AAm?$AAC?$AAh?$AAe?$AAc?$AAk?$AAp?$AAo?$AAi?$AAn?$AAt?$AA?$AA@ 10054d20     LIBCMTD:dbgheap.obj
 0002:00004d44       ??_C@_0DP@LEFMFBOD@Bad?5memory?5block?5found?5at?50x?$CFp?4?6@ 10054d44     LIBCMTD:dbgheap.obj
 0002:00004d84       ??_C@_0CB@EAAIGELO@Bad?5memory?5block?5found?5at?50x?$CFp?4?6@ 10054d84     LIBCMTD:dbgheap.obj
 0002:00004da8       ??_C@_1CE@PDIENACM@?$AA_?$AAC?$AAr?$AAt?$AAM?$AAe?$AAm?$AAD?$AAi?$AAf?$AAf?$AAe?$AAr?$AAe?$AAn?$AAc?$AAe?$AA?$AA@ 10054da8     LIBCMTD:dbgheap.obj
 0002:00004dcc       ??_C@_1CC@DHPFEMMN@?$AAo?$AAl?$AAd?$AAS?$AAt?$AAa?$AAt?$AAe?$AA?5?$AA?$CB?$AA?$DN?$AA?5?$AAN?$AAU?$AAL?$AAL?$AA?$AA@ 10054dcc     LIBCMTD:dbgheap.obj
 0002:00004df0       ??_C@_1CC@DFPEDFBP@?$AAn?$AAe?$AAw?$AAS?$AAt?$AAa?$AAt?$AAe?$AA?5?$AA?$CB?$AA?$DN?$AA?5?$AAN?$AAU?$AAL?$AAL?$AA?$AA@ 10054df0     LIBCMTD:dbgheap.obj
 0002:00004e14       ??_C@_1CG@LPFIACGM@?$AA_?$AAp?$AAr?$AAi?$AAn?$AAt?$AAM?$AAe?$AAm?$AAB?$AAl?$AAo?$AAc?$AAk?$AAD?$AAa?$AAt?$AAa?$AA?$AA@ 10054e14     LIBCMTD:dbgheap.obj
 0002:00004e3c       ??_C@_1BI@KALLJECN@?$AA?$CI?$AA?$CK?$AA_?$AAe?$AAr?$AAr?$AAn?$AAo?$AA?$CI?$AA?$CJ?$AA?$CJ?$AA?$AA@ 10054e3c     LIBCMTD:dbgheap.obj
 0002:00004e54       ??_C@_0BA@HJBKCELP@?5Data?3?5?$DM?$CFs?$DO?5?$CFs?6?$AA@ 10054e54     LIBCMTD:dbgheap.obj
 0002:00004e64       ??_C@_0BE@KCIPKCIA@Dumping?5objects?5?9?$DO?6?$AA@ 10054e64     LIBCMTD:dbgheap.obj
 0002:00004e78       ??_C@_0BE@OIEFNFL@?$CDFile?5Error?$CD?$CI?$CFd?$CJ?5?3?5?$AA@ 10054e78     LIBCMTD:dbgheap.obj
 0002:00004e8c       ??_C@_0L@JMEFFCCJ@?$CFhs?$CI?$CFd?$CJ?5?3?5?$AA@ 10054e8c     LIBCMTD:dbgheap.obj
 0002:00004e98       ??_C@_06PKLGBFGM@?$HL?$CFld?$HN?5?$AA@ 10054e98     LIBCMTD:dbgheap.obj
 0002:00004ea0       ??_C@_0DD@GHNAAKBB@client?5block?5at?50x?$CFp?0?5subtype?5?$CFx@ 10054ea0     LIBCMTD:dbgheap.obj
 0002:00004ed4       ??_C@_0CH@FAGDDGPN@normal?5block?5at?50x?$CFp?0?5?$CFIu?5bytes?5@ 10054ed4     LIBCMTD:dbgheap.obj
 0002:00004efc       ??_C@_0DA@MDLBNIBM@crt?5block?5at?50x?$CFp?0?5subtype?5?$CFx?0?5?$CF@ 10054efc     LIBCMTD:dbgheap.obj
 0002:00004f2c       ??_C@_0BH@GFGKJDCO@Object?5dump?5complete?4?6?$AA@ 10054f2c     LIBCMTD:dbgheap.obj
 0002:00004f44       ??_C@_0BI@JBFPOEJA@Detected?5memory?5leaks?$CB?6?$AA@ 10054f44     LIBCMTD:dbgheap.obj
 0002:00004f5c       ??_C@_1CM@MPNIBKGK@?$AA_?$AAC?$AAr?$AAt?$AAM?$AAe?$AAm?$AAD?$AAu?$AAm?$AAp?$AAS?$AAt?$AAa?$AAt?$AAi?$AAs?$AAt?$AAi?$AAc?$AAs?$AA?$AA@ 10054f5c     LIBCMTD:dbgheap.obj
 0002:00004f88       ??_C@_0BO@DACNIABB@?$CFId?5bytes?5in?5?$CFId?5?$CFhs?5Blocks?4?6?$AA@ 10054f88     LIBCMTD:dbgheap.obj
 0002:00004fa8       ??_C@_0CB@BLHDAFNE@Largest?5number?5used?3?5?$CFId?5bytes?4?6@ 10054fa8     LIBCMTD:dbgheap.obj
 0002:00004fcc       ??_C@_0BP@DEDHGGGI@Total?5allocations?3?5?$CFId?5bytes?4?6?$AA@ 10054fcc     LIBCMTD:dbgheap.obj
 0002:00004fec       ??_C@_1CE@NPMGPNNP@?$AAI?$AAS?$AA_?$AA2?$AA_?$AAP?$AAO?$AAW?$AA_?$AAN?$AA?$CI?$AAa?$AAl?$AAi?$AAg?$AAn?$AA?$CJ?$AA?$AA@ 10054fec     LIBCMTD:dbgheap.obj
 0002:00005010       ??_C@_1DG@DONCJBBJ@?$AA_?$AAa?$AAl?$AAi?$AAg?$AAn?$AAe?$AAd?$AA_?$AAo?$AAf?$AAf?$AAs?$AAe?$AAt?$AA_?$AAm?$AAa?$AAl?$AAl?$AAo?$AAc?$AA_?$AAd?$AAb?$AAg?$AA?$AA@ 10055010     LIBCMTD:dbgheap.obj
 0002:00005048       ??_C@_1DK@LFLKFPDA@?$AAo?$AAf?$AAf?$AAs?$AAe?$AAt?$AA?5?$AA?$DN?$AA?$DN?$AA?5?$AA0?$AA?5?$AA?$HM?$AA?$HM?$AA?5?$AAo?$AAf?$AAf?$AAs?$AAe?$AAt?$AA?5?$AA?$DM?$AA?5?$AAs?$AAi?$AAz?$AAe?$AA?$AA@ 10055048     LIBCMTD:dbgheap.obj
 0002:00005088       ??_C@_0EI@NDNJMAJK@The?5block?5at?50x?$CFp?5was?5not?5alloca@ 10055088     LIBCMTD:dbgheap.obj
 0002:000050d0       ??_C@_0DL@PGHMMKNE@Damage?5before?50x?$CFp?5which?5was?5all@ 100550d0     LIBCMTD:dbgheap.obj
 0002:0000510c       ??_C@_1DI@NINIKFFK@?$AA_?$AAa?$AAl?$AAi?$AAg?$AAn?$AAe?$AAd?$AA_?$AAo?$AAf?$AAf?$AAs?$AAe?$AAt?$AA_?$AAr?$AAe?$AAa?$AAl?$AAl?$AAo?$AAc?$AA_?$AAd?$AAb?$AAg?$AA?$AA@ 1005510c     LIBCMTD:dbgheap.obj
 0002:00005148       ??_C@_0EF@PGELACII@The?5block?5at?50x?$CFp?5was?5not?5alloca@ 10055148     LIBCMTD:dbgheap.obj
 0002:00005190       ??_C@_1CC@MOBIKHH@?$AAm?$AAe?$AAm?$AAb?$AAl?$AAo?$AAc?$AAk?$AA?5?$AA?$CB?$AA?$DN?$AA?5?$AAN?$AAU?$AAL?$AAL?$AA?$AA@ 10055190     LIBCMTD:dbgheap.obj
 0002:000051b4       ??_C@_1CG@CEGMHIMN@?$AA_?$AAa?$AAl?$AAi?$AAg?$AAn?$AAe?$AAd?$AA_?$AAm?$AAs?$AAi?$AAz?$AAe?$AA_?$AAd?$AAb?$AAg?$AA?$AA@ 100551b4     LIBCMTD:dbgheap.obj
 0002:000051dc       ??_C@_1CC@FADMNIL@?$AA?$CI?$AAs?$AAt?$AAr?$AAe?$AAa?$AAm?$AA?5?$AA?$CB?$AA?$DN?$AA?5?$AAN?$AAU?$AAL?$AAL?$AA?$CJ?$AA?$AA@ 100551dc     LIBCMTD:fileno.obj
 0002:00005200       ??_C@_1GA@PBJHELNC@?$AAf?$AA?3?$AA?2?$AAd?$AAd?$AA?2?$AAv?$AAc?$AAt?$AAo?$AAo?$AAl?$AAs?$AA?2?$AAc?$AAr?$AAt?$AA_?$AAb?$AAl?$AAd?$AA?2?$AAs?$AAe?$AAl?$AAf?$AA_?$AAx?$AA8?$AA6?$AA?2?$AAc@ 10055200     LIBCMTD:fileno.obj
 0002:00005260       ??_C@_1BA@JGHIEKKM@?$AA_?$AAf?$AAi?$AAl?$AAe?$AAn?$AAo?$AA?$AA@ 10055260     LIBCMTD:fileno.obj
 0002:00005270       ??_C@_1GE@PEEPNGBM@?$AAf?$AA?3?$AA?2?$AAd?$AAd?$AA?2?$AAv?$AAc?$AAt?$AAo?$AAo?$AAl?$AAs?$AA?2?$AAc?$AAr?$AAt?$AA_?$AAb?$AAl?$AAd?$AA?2?$AAs?$AAe?$AAl?$AAf?$AA_?$AAx?$AA8?$AA6?$AA?2?$AAc@ 10055270     LIBCMTD:vfprintf.obj
 0002:000052d4       ??_C@_1CA@OEHMHBJF@?$AAv?$AAf?$AAp?$AAr?$AAi?$AAn?$AAt?$AAf?$AA_?$AAh?$AAe?$AAl?$AAp?$AAe?$AAr?$AA?$AA@ 100552d4     LIBCMTD:vfprintf.obj
 0002:00005300       ??_C@_1BA@GLMCNLEM@?$AAW?$AAa?$AAr?$AAn?$AAi?$AAn?$AAg?$AA?$AA@ 10055300     LIBCMTD:dbgrptw.obj
 0002:00005310       ??_C@_1M@ILHOPKA@?$AAE?$AAr?$AAr?$AAo?$AAr?$AA?$AA@ 10055310     LIBCMTD:dbgrptw.obj
 0002:0000531c       ??_C@_1CC@CGHMNGDG@?$AAA?$AAs?$AAs?$AAe?$AAr?$AAt?$AAi?$AAo?$AAn?$AA?5?$AAF?$AAa?$AAi?$AAl?$AAe?$AAd?$AA?$AA@ 1005531c     LIBCMTD:dbgrptw.obj
 0002:00005340       ??_C@_1HI@OFEHGPPC@?$AAm?$AAo?$AAd?$AAe?$AA?5?$AA?$DN?$AA?$DN?$AA?5?$AA_?$AAC?$AAR?$AAT?$AA_?$AAR?$AAP?$AAT?$AAH?$AAO?$AAO?$AAK?$AA_?$AAI?$AAN?$AAS?$AAT?$AAA?$AAL?$AAL?$AA?5?$AA?$HM?$AA?$HM?$AA?5@ 10055340     LIBCMTD:dbgrptw.obj
 0002:000053b8       ??_C@_1GA@IBJGKIFE@?$AAf?$AA?3?$AA?2?$AAd?$AAd?$AA?2?$AAv?$AAc?$AAt?$AAo?$AAo?$AAl?$AAs?$AA?2?$AAc?$AAr?$AAt?$AA_?$AAb?$AAl?$AAd?$AA?2?$AAs?$AAe?$AAl?$AAf?$AA_?$AAx?$AA8?$AA6?$AA?2?$AAc@ 100553b8     LIBCMTD:dbgrptw.obj
 0002:00005418       ??_C@_1CI@IIHEAKEI@?$AA_?$AAC?$AAr?$AAt?$AAS?$AAe?$AAt?$AAR?$AAe?$AAp?$AAo?$AAr?$AAt?$AAH?$AAo?$AAo?$AAk?$AAW?$AA2?$AA?$AA@ 10055418     LIBCMTD:dbgrptw.obj
 0002:00005440       ??_C@_1CG@JBJEFOCM@?$AAp?$AAf?$AAn?$AAN?$AAe?$AAw?$AAH?$AAo?$AAo?$AAk?$AA?5?$AA?$CB?$AA?$DN?$AA?5?$AAN?$AAU?$AAL?$AAL?$AA?$AA@ 10055440     LIBCMTD:dbgrptw.obj
 0002:00005468       ??_C@_1FI@PHIAFFHM@?$AA?$CI?$AA?$CC?$AAT?$AAh?$AAe?$AA?5?$AAh?$AAo?$AAo?$AAk?$AA?5?$AAf?$AAu?$AAn?$AAc?$AAt?$AAi?$AAo?$AAn?$AA?5?$AAi?$AAs?$AA?5?$AAn?$AAo?$AAt?$AA?5?$AAi?$AAn?$AA?5?$AAt?$AAh@ 10055468     LIBCMTD:dbgrptw.obj
 0002:000054c0       ??_C@_0DA@PCCBBBID@f?3?2dd?2vctools?2crt_bld?2self_x86?2c@ 100554c0     LIBCMTD:dbgrptw.obj
 0002:000054f0       ??_C@_1CI@PGJIFDEK@?$AA_?$AA_?$AAc?$AAr?$AAt?$AAM?$AAe?$AAs?$AAs?$AAa?$AAg?$AAe?$AAW?$AAi?$AAn?$AAd?$AAo?$AAw?$AAW?$AA?$AA@ 100554f0     LIBCMTD:dbgrptw.obj
 0002:00005518       ??_C@_1GI@DEDNNLCI@?$AAw?$AAc?$AAs?$AAc?$AAp?$AAy?$AA_?$AAs?$AA?$CI?$AAs?$AAz?$AAE?$AAx?$AAe?$AAN?$AAa?$AAm?$AAe?$AA?0?$AA?5?$AA2?$AA6?$AA0?$AA?0?$AA?5?$AAL?$AA?$CC?$AA?$DM?$AAp?$AAr?$AAo?$AAg@ 10055518     LIBCMTD:dbgrptw.obj
 0002:00005580       ??_C@_1NO@LECLLHOL@?$AAm?$AAe?$AAm?$AAc?$AAp?$AAy?$AA_?$AAs?$AA?$CI?$AAs?$AAz?$AAS?$AAh?$AAo?$AAr?$AAt?$AAP?$AAr?$AAo?$AAg?$AAN?$AAa?$AAm?$AAe?$AA?0?$AA?5?$AAs?$AAi?$AAz?$AAe?$AAo?$AAf@ 10055580     LIBCMTD:dbgrptw.obj
 0002:00005660       ??_C@_1OG@PMPPFHAF@?$AA?6?$AA?6?$AAF?$AAo?$AAr?$AA?5?$AAi?$AAn?$AAf?$AAo?$AAr?$AAm?$AAa?$AAt?$AAi?$AAo?$AAn?$AA?5?$AAo?$AAn?$AA?5?$AAh?$AAo?$AAw?$AA?5?$AAy?$AAo?$AAu?$AAr?$AA?5?$AAp?$AAr@ 10055660     LIBCMTD:dbgrptw.obj
 0002:00005748       ??_C@_11LOCGONAA@?$AA?$AA@ 10055748     LIBCMTD:dbgrptw.obj
 0002:0000574c       ??_C@_1BA@GLLGCPCK@?$AA?6?$AAL?$AAi?$AAn?$AAe?$AA?3?$AA?5?$AA?$AA@ 1005574c     LIBCMTD:dbgrptw.obj
 0002:0000575c       ??_C@_1BA@LNHECFIM@?$AA?6?$AAF?$AAi?$AAl?$AAe?$AA?3?$AA?5?$AA?$AA@ 1005575c     LIBCMTD:dbgrptw.obj
 0002:0000576c       ??_C@_1BE@CGCJKGHI@?$AA?6?$AAM?$AAo?$AAd?$AAu?$AAl?$AAe?$AA?3?$AA?5?$AA?$AA@ 1005576c     LIBCMTD:dbgrptw.obj
 0002:00005780       ??_C@_1KM@HNMIBKJH@?$AAD?$AAe?$AAb?$AAu?$AAg?$AA?5?$AA?$CF?$AAs?$AA?$CB?$AA?6?$AA?6?$AAP?$AAr?$AAo?$AAg?$AAr?$AAa?$AAm?$AA?3?$AA?5?$AA?$CF?$AAs?$AA?$CF?$AAs?$AA?$CF?$AAs?$AA?$CF?$AAs?$AA?$CF?$AAs?$AA?$CF?$AAs@ 10055780     LIBCMTD:dbgrptw.obj
 0002:00005830       ??_C@_1JI@EACPGHID@?$AAw?$AAc?$AAs?$AAc?$AAp?$AAy?$AA_?$AAs?$AA?$CI?$AAs?$AAz?$AAO?$AAu?$AAt?$AAM?$AAe?$AAs?$AAs?$AAa?$AAg?$AAe?$AA?0?$AA?5?$AA4?$AA0?$AA9?$AA6?$AA?0?$AA?5?$AAL?$AA?$CC?$AA_@ 10055830     LIBCMTD:dbgrptw.obj
 0002:000058c8       ??_C@_1FG@BBOLDHGF@?$AA_?$AAC?$AAr?$AAt?$AAD?$AAb?$AAg?$AAR?$AAe?$AAp?$AAo?$AAr?$AAt?$AA?3?$AA?5?$AAS?$AAt?$AAr?$AAi?$AAn?$AAg?$AA?5?$AAt?$AAo?$AAo?$AA?5?$AAl?$AAo?$AAn?$AAg?$AA?5?$AAo@ 100558c8     LIBCMTD:dbgrptw.obj
 0002:00005920       ??_C@_1BI@MFCLPIBM@?$AAs?$AAt?$AAr?$AA?5?$AA?$CB?$AA?$DN?$AA?5?$AAN?$AAU?$AAL?$AAL?$AA?$AA@ 10055920     LIBCMTD:_sftbuf.obj
 0002:00005938       ??_C@_1GC@DGAFOCMO@?$AAf?$AA?3?$AA?2?$AAd?$AAd?$AA?2?$AAv?$AAc?$AAt?$AAo?$AAo?$AAl?$AAs?$AA?2?$AAc?$AAr?$AAt?$AA_?$AAb?$AAl?$AAd?$AA?2?$AAs?$AAe?$AAl?$AAf?$AA_?$AAx?$AA8?$AA6?$AA?2?$AAc@ 10055938     LIBCMTD:_sftbuf.obj
 0002:0000599c       ??_C@_0DB@OLNNDFNH@f?3?2dd?2vctools?2crt_bld?2self_x86?2c@ 1005599c     LIBCMTD:_sftbuf.obj
 0002:000059d0       ??_C@_1CO@KCKAACMI@?$AAf?$AAl?$AAa?$AAg?$AA?5?$AA?$DN?$AA?$DN?$AA?5?$AA0?$AA?5?$AA?$HM?$AA?$HM?$AA?5?$AAf?$AAl?$AAa?$AAg?$AA?5?$AA?$DN?$AA?$DN?$AA?5?$AA1?$AA?$AA@ 100559d0     LIBCMTD:_sftbuf.obj
 0002:00005a00       ??_C@_06OJHGLDPL@?$CInull?$CJ?$AA@ 10055a00     LIBCMTD:output.obj
 0002:00005a08       ??_C@_1O@CEDCILHN@?$AA?$CI?$AAn?$AAu?$AAl?$AAl?$AA?$CJ?$AA?$AA@ 10055a08     LIBCMTD:output.obj
 0002:00005a18       ___lookuptable             10055a18     LIBCMTD:output.obj
 0002:00005a78       ??_C@_1GA@HHFOFBLN@?$AAf?$AA?3?$AA?2?$AAd?$AAd?$AA?2?$AAv?$AAc?$AAt?$AAo?$AAo?$AAl?$AAs?$AA?2?$AAc?$AAr?$AAt?$AA_?$AAb?$AAl?$AAd?$AA?2?$AAs?$AAe?$AAl?$AAf?$AA_?$AAx?$AA8?$AA6?$AA?2?$AAc@ 10055a78     LIBCMTD:output.obj
 0002:00005ad8       ??_C@_1BE@IONLIDNC@?$AA_?$AAo?$AAu?$AAt?$AAp?$AAu?$AAt?$AA_?$AAl?$AA?$AA@ 10055ad8     LIBCMTD:output.obj
 0002:00005aec       ??_C@_1CC@IFFHEMNF@?$AA?$CI?$AAc?$AAh?$AA?5?$AA?$CB?$AA?$DN?$AA?5?$AA_?$AAT?$AA?$CI?$AA?8?$AA?2?$AA0?$AA?8?$AA?$CJ?$AA?$CJ?$AA?$AA@ 10055aec     LIBCMTD:output.obj
 0002:00005b10       ??_C@_1EK@PNGFDECN@?$AA?$CI?$AA?$CC?$AA?8?$AAn?$AA?8?$AA?5?$AAf?$AAo?$AAr?$AAm?$AAa?$AAt?$AA?5?$AAs?$AAp?$AAe?$AAc?$AAi?$AAf?$AAi?$AAe?$AAr?$AA?5?$AAd?$AAi?$AAs?$AAa?$AAb?$AAl?$AAe?$AAd?$AA?$CC@ 10055b10     LIBCMTD:output.obj
 0002:00005b5c       ??_C@_0DA@NFBEBPEE@f?3?2dd?2vctools?2crt_bld?2self_x86?2c@ 10055b5c     LIBCMTD:output.obj
 0002:00005b8c       ??_C@_0DA@NBLAKPEL@f?3?2dd?2vctools?2crt_bld?2self_x86?2c@ 10055b8c     LIBCMTD:ioinit.obj
 0002:00005bc0       ??_C@_1GC@DHFFJKMC@?$AAf?$AA?3?$AA?2?$AAd?$AAd?$AA?2?$AAv?$AAc?$AAt?$AAo?$AAo?$AAl?$AAs?$AA?2?$AAc?$AAr?$AAt?$AA_?$AAb?$AAl?$AAd?$AA?2?$AAs?$AAe?$AAl?$AAf?$AA_?$AAx?$AA8?$AA6?$AA?2?$AAc@ 10055bc0     LIBCMTD:vprintf.obj
 0002:00005c24       ??_C@_1BO@JGFPDJCP@?$AAv?$AAp?$AAr?$AAi?$AAn?$AAt?$AAf?$AA_?$AAh?$AAe?$AAl?$AAp?$AAe?$AAr?$AA?$AA@ 10055c24     LIBCMTD:vprintf.obj
 0002:00005c44       ??_C@_0DC@LMJHGCKC@f?3?2dd?2vctools?2crt_bld?2self_x86?2c@ 10055c44     LIBCMTD:tidtable.obj
 0002:00005c78       __sys_errlist              10055c78     LIBCMTD:syserr.obj
 0002:00005d28       ??_C@_08INEPGKHH@No?5error?$AA@ 10055d28     LIBCMTD:syserr.obj
 0002:00005d34       ??_C@_0BI@BJFCGOHL@Operation?5not?5permitted?$AA@ 10055d34     LIBCMTD:syserr.obj
 0002:00005d4c       ??_C@_0BK@FMDHKPNF@No?5such?5file?5or?5directory?$AA@ 10055d4c     LIBCMTD:syserr.obj
 0002:00005d68       ??_C@_0BA@FKIAIBGA@No?5such?5process?$AA@ 10055d68     LIBCMTD:syserr.obj
 0002:00005d78       ??_C@_0BK@FJBOAFDK@Interrupted?5function?5call?$AA@ 10055d78     LIBCMTD:syserr.obj
 0002:00005d94       ??_C@_0BD@KKNFOBBD@Input?1output?5error?$AA@ 10055d94     LIBCMTD:syserr.obj
 0002:00005da8       ??_C@_0BK@DPKMCKJ@No?5such?5device?5or?5address?$AA@ 10055da8     LIBCMTD:syserr.obj
 0002:00005dc4       ??_C@_0BC@MFFGCDFL@Arg?5list?5too?5long?$AA@ 10055dc4     LIBCMTD:syserr.obj
 0002:00005dd8       ??_C@_0BC@HKPNECK@Exec?5format?5error?$AA@ 10055dd8     LIBCMTD:syserr.obj
 0002:00005dec       ??_C@_0BE@NFGDDCEF@Bad?5file?5descriptor?$AA@ 10055dec     LIBCMTD:syserr.obj
 0002:00005e00       ??_C@_0BD@LOHELEP@No?5child?5processes?$AA@ 10055e00     LIBCMTD:syserr.obj
 0002:00005e14       ??_C@_0CB@EPFKGNAK@Resource?5temporarily?5unavailable@ 10055e14     LIBCMTD:syserr.obj
 0002:00005e38       ??_C@_0BB@IMDKMPFB@Not?5enough?5space?$AA@ 10055e38     LIBCMTD:syserr.obj
 0002:00005e4c       ??_C@_0BC@HFNFNKAI@Permission?5denied?$AA@ 10055e4c     LIBCMTD:syserr.obj
 0002:00005e60       ??_C@_0M@LOEHLCJD@Bad?5address?$AA@ 10055e60     LIBCMTD:syserr.obj
 0002:00005e6c       ??_C@_0O@NIPGCINC@Unknown?5error?$AA@ 10055e6c     LIBCMTD:syserr.obj
 0002:00005e7c       ??_C@_0BA@BIBLIOEK@Resource?5device?$AA@ 10055e7c     LIBCMTD:syserr.obj
 0002:00005e8c       ??_C@_0M@NAAJNNGH@File?5exists?$AA@ 10055e8c     LIBCMTD:syserr.obj
 0002:00005e98       ??_C@_0O@OAMDNOCP@Improper?5link?$AA@ 10055e98     LIBCMTD:syserr.obj
 0002:00005ea8       ??_C@_0P@NLEIANHE@No?5such?5device?$AA@ 10055ea8     LIBCMTD:syserr.obj
 0002:00005eb8       ??_C@_0BA@CJBACOOL@Not?5a?5directory?$AA@ 10055eb8     LIBCMTD:syserr.obj
 0002:00005ec8       ??_C@_0P@NDHGCGKE@Is?5a?5directory?$AA@ 10055ec8     LIBCMTD:syserr.obj
 0002:00005ed8       ??_C@_0BB@HMGGCEBG@Invalid?5argument?$AA@ 10055ed8     LIBCMTD:syserr.obj
 0002:00005eec       ??_C@_0BO@IIFBODJE@Too?5many?5open?5files?5in?5system?$AA@ 10055eec     LIBCMTD:syserr.obj
 0002:00005f0c       ??_C@_0BE@INBJMKGG@Too?5many?5open?5files?$AA@ 10055f0c     LIBCMTD:syserr.obj
 0002:00005f20       ??_C@_0CE@ONOKNLPF@Inappropriate?5I?1O?5control?5operat@ 10055f20     LIBCMTD:syserr.obj
 0002:00005f44       ??_C@_0P@LFMMIPAE@File?5too?5large?$AA@ 10055f44     LIBCMTD:syserr.obj
 0002:00005f54       ??_C@_0BI@FEALHKLD@No?5space?5left?5on?5device?$AA@ 10055f54     LIBCMTD:syserr.obj
 0002:00005f6c       ??_C@_0N@FEHLOILP@Invalid?5seek?$AA@ 10055f6c     LIBCMTD:syserr.obj
 0002:00005f7c       ??_C@_0BG@DDBFNKBH@Read?9only?5file?5system?$AA@ 10055f7c     LIBCMTD:syserr.obj
 0002:00005f94       ??_C@_0P@PKCJJLLM@Too?5many?5links?$AA@ 10055f94     LIBCMTD:syserr.obj
 0002:00005fa4       ??_C@_0M@LHEPIIOM@Broken?5pipe?$AA@ 10055fa4     LIBCMTD:syserr.obj
 0002:00005fb0       ??_C@_0N@MMJPGLJK@Domain?5error?$AA@ 10055fb0     LIBCMTD:syserr.obj
 0002:00005fc0       ??_C@_0BB@FCBJFCAJ@Result?5too?5large?$AA@ 10055fc0     LIBCMTD:syserr.obj
 0002:00005fd4       ??_C@_0BK@JAEBMJJM@Resource?5deadlock?5avoided?$AA@ 10055fd4     LIBCMTD:syserr.obj
 0002:00005ff0       ??_C@_0BC@BEDIHIDK@Filename?5too?5long?$AA@ 10055ff0     LIBCMTD:syserr.obj
 0002:00006004       ??_C@_0BD@CLHBCGPB@No?5locks?5available?$AA@ 10056004     LIBCMTD:syserr.obj
 0002:00006018       ??_C@_0BJ@IHEHINLI@Function?5not?5implemented?$AA@ 10056018     LIBCMTD:syserr.obj
 0002:00006034       ??_C@_0BE@ICMCHPHH@Directory?5not?5empty?$AA@ 10056034     LIBCMTD:syserr.obj
 0002:00006048       ??_C@_0BG@KLEAJEFJ@Illegal?5byte?5sequence?$AA@ 10056048     LIBCMTD:syserr.obj
 0002:00006060       ??_C@_0DB@KIKNCIEC@f?3?2dd?2vctools?2crt_bld?2self_x86?2c@ 10056060     LIBCMTD:osfinfo.obj
 0002:00006098       ??_C@_1FO@LPCLHKGE@?$AA?$CI?$AAf?$AAh?$AA?5?$AA?$DO?$AA?$DN?$AA?5?$AA0?$AA?5?$AA?$CG?$AA?$CG?$AA?5?$AA?$CI?$AAu?$AAn?$AAs?$AAi?$AAg?$AAn?$AAe?$AAd?$AA?$CJ?$AAf?$AAh?$AA?5?$AA?$DM?$AA?5?$AA?$CI?$AAu?$AAn?$AAs?$AAi@ 10056098     LIBCMTD:osfinfo.obj
 0002:000060f8       ??_C@_1GC@MLKLDJJG@?$AAf?$AA?3?$AA?2?$AAd?$AAd?$AA?2?$AAv?$AAc?$AAt?$AAo?$AAo?$AAl?$AAs?$AA?2?$AAc?$AAr?$AAt?$AA_?$AAb?$AAl?$AAd?$AA?2?$AAs?$AAe?$AAl?$AAf?$AA_?$AAx?$AA8?$AA6?$AA?2?$AAc@ 100560f8     LIBCMTD:osfinfo.obj
 0002:0000615c       ??_C@_1BO@EMBOBGKE@?$AA_?$AAg?$AAe?$AAt?$AA_?$AAo?$AAs?$AAf?$AAh?$AAa?$AAn?$AAd?$AAl?$AAe?$AA?$AA@ 1005615c     LIBCMTD:osfinfo.obj
 0002:0000617c       ??_C@_1CM@OKGMMMDH@?$AA?$CI?$AA_?$AAo?$AAs?$AAf?$AAi?$AAl?$AAe?$AA?$CI?$AAf?$AAh?$AA?$CJ?$AA?5?$AA?$CG?$AA?5?$AAF?$AAO?$AAP?$AAE?$AAN?$AA?$CJ?$AA?$AA@ 1005617c     LIBCMTD:osfinfo.obj
 0002:000061a8       ??_C@_1FO@EPLDPDDL@?$AAf?$AA?3?$AA?2?$AAd?$AAd?$AA?2?$AAv?$AAc?$AAt?$AAo?$AAo?$AAl?$AAs?$AA?2?$AAc?$AAr?$AAt?$AA_?$AAb?$AAl?$AAd?$AA?2?$AAs?$AAe?$AAl?$AAf?$AA_?$AAx?$AA8?$AA6?$AA?2?$AAc@ 100561a8     LIBCMTD:write.obj
 0002:00006208       ??_C@_1O@KOFKDHPL@?$AA_?$AAw?$AAr?$AAi?$AAt?$AAe?$AA?$AA@ 10056208     LIBCMTD:write.obj
 0002:00006218       ??_C@_1JE@ECKHFIFP@?$AA?$CI?$AA?$CC?$AAI?$AAn?$AAv?$AAa?$AAl?$AAi?$AAd?$AA?5?$AAf?$AAi?$AAl?$AAe?$AA?5?$AAd?$AAe?$AAs?$AAc?$AAr?$AAi?$AAp?$AAt?$AAo?$AAr?$AA?4?$AA?5?$AAF?$AAi?$AAl?$AAe?$AA?5@ 10056218     LIBCMTD:write.obj
 0002:000062ac       ??_C@_1BM@KFJLMBPG@?$AA?$CI?$AAb?$AAu?$AAf?$AA?5?$AA?$CB?$AA?$DN?$AA?5?$AAN?$AAU?$AAL?$AAL?$AA?$CJ?$AA?$AA@ 100562ac     LIBCMTD:write.obj
 0002:000062c8       ??_C@_1BM@NCANHCIP@?$AA_?$AAw?$AAr?$AAi?$AAt?$AAe?$AA_?$AAn?$AAo?$AAl?$AAo?$AAc?$AAk?$AA?$AA@ 100562c8     LIBCMTD:write.obj
 0002:000062e4       ??_C@_1CC@EEOLPHGO@?$AA?$CI?$AA?$CI?$AAc?$AAn?$AAt?$AA?5?$AA?$CG?$AA?5?$AA1?$AA?$CJ?$AA?5?$AA?$DN?$AA?$DN?$AA?5?$AA0?$AA?$CJ?$AA?$AA@ 100562e4     LIBCMTD:write.obj
 0002:00006308       ??_C@_1DI@CNMHHHLG@?$AAi?$AAs?$AAl?$AAe?$AAa?$AAd?$AAb?$AAy?$AAt?$AAe?$AA?$CI?$AA_?$AAd?$AAb?$AAc?$AAs?$AAB?$AAu?$AAf?$AAf?$AAe?$AAr?$AA?$CI?$AAf?$AAh?$AA?$CJ?$AA?$CJ?$AA?$AA@ 10056308     LIBCMTD:write.obj
 0002:00006340       ?LocalIdBitWidth@CrossScopeId@CodeViewInfo@@2IB 10056340     LIBCMTD:pdblkup.obj
 0002:00006344       ?IdScopeBitWidth@CrossScopeId@CodeViewInfo@@2IB 10056344     LIBCMTD:pdblkup.obj
 0002:00006348       ?StartCrossScopeId@CrossScopeId@CodeViewInfo@@2IB 10056348     LIBCMTD:pdblkup.obj
 0002:0000634c       ?LocalIdMask@CrossScopeId@CodeViewInfo@@2IB 1005634c     LIBCMTD:pdblkup.obj
 0002:00006350       ?ScopeIdMask@CrossScopeId@CodeViewInfo@@2IB 10056350     LIBCMTD:pdblkup.obj
 0002:00006354       ?MaxLocalId@CrossScopeId@CodeViewInfo@@2IB 10056354     LIBCMTD:pdblkup.obj
 0002:00006358       ?MaxScopeId@CrossScopeId@CodeViewInfo@@2IB 10056358     LIBCMTD:pdblkup.obj
 0002:00006394       ??_C@_1BK@GAEMIDIL@?$AAA?$AAD?$AAV?$AAA?$AAP?$AAI?$AA3?$AA2?$AA?4?$AAD?$AAL?$AAL?$AA?$AA@ 10056394     LIBCMTD:pdblkup.obj
 0002:000063b0       ??_C@_0O@COHOBMLB@RegOpenKeyExW?$AA@ 100563b0     LIBCMTD:pdblkup.obj
 0002:000063c0       ??_C@_0BB@GLNAEDBD@RegQueryValueExW?$AA@ 100563c0     LIBCMTD:pdblkup.obj
 0002:000063d4       ??_C@_0M@HLOHPNFA@RegCloseKey?$AA@ 100563d4     LIBCMTD:pdblkup.obj
 0002:000063e0       ??_C@_1FM@OEMPKHJI@?$AAS?$AAO?$AAF?$AAT?$AAW?$AAA?$AAR?$AAE?$AA?2?$AAM?$AAi?$AAc?$AAr?$AAo?$AAs?$AAo?$AAf?$AAt?$AA?2?$AAV?$AAi?$AAs?$AAu?$AAa?$AAl?$AAS?$AAt?$AAu?$AAd?$AAi?$AAo?$AA?2@ 100563e0     LIBCMTD:pdblkup.obj
 0002:0000643c       ??_C@_1CK@HHHCOJPD@?$AAE?$AAn?$AAv?$AAi?$AAr?$AAo?$AAn?$AAm?$AAe?$AAn?$AAt?$AAD?$AAi?$AAr?$AAe?$AAc?$AAt?$AAo?$AAr?$AAy?$AA?$AA@ 1005643c     LIBCMTD:pdblkup.obj
 0002:00006484       ??_C@_1BC@MIBIBMGK@?$AAM?$AAS?$AAP?$AAD?$AAB?$AA1?$AA1?$AA0?$AA?$AA@ 10056484     LIBCMTD:pdblkup.obj
 0002:00006498       ??_C@_0BB@KCIACLNC@PDBOpenValidate5?$AA@ 10056498     LIBCMTD:pdblkup.obj
 0002:000064ac       ??_C@_01KDCPPGHE@r?$AA@    100564ac     LIBCMTD:pdblkup.obj
 0002:000064b0       ??_C@_0BE@JOGNEJCI@GetCurrentPackageId?$AA@ 100564b0     LIBCMTD:winapisupp.obj
 0002:000064c4       ??_C@_1BK@MGMFAEKH@?$AAk?$AAe?$AAr?$AAn?$AAe?$AAl?$AA3?$AA2?$AA?4?$AAd?$AAl?$AAl?$AA?$AA@ 100564c4     LIBCMTD:winapisupp.obj
 0002:000064e0       ??_C@_1FC@NCPEPIBI@?$AA?$CI?$AA?$CI?$AA_?$AAD?$AAs?$AAt?$AA?$CJ?$AA?$CJ?$AA?5?$AA?$CB?$AA?$DN?$AA?5?$AAN?$AAU?$AAL?$AAL?$AA?5?$AA?$CG?$AA?$CG?$AA?5?$AA?$CI?$AA?$CI?$AA_?$AAS?$AAi?$AAz?$AAe?$AAI?$AAn?$AAB?$AAy?$AAt@ 100564e0     LIBCMTD:strcpy_s.obj
 0002:00006534       ??_C@_1BC@CFJEPFGF@?$AAs?$AAt?$AAr?$AAc?$AAp?$AAy?$AA_?$AAs?$AA?$AA@ 10056534     LIBCMTD:strcpy_s.obj
 0002:00006548       ??_C@_1GK@PAJJBKJF@?$AAf?$AA?3?$AA?2?$AAd?$AAd?$AA?2?$AAv?$AAc?$AAt?$AAo?$AAo?$AAl?$AAs?$AA?2?$AAc?$AAr?$AAt?$AA_?$AAb?$AAl?$AAd?$AA?2?$AAs?$AAe?$AAl?$AAf?$AA_?$AAx?$AA8?$AA6?$AA?2?$AAc@ 10056548     LIBCMTD:strncpy_s.obj
 0002:000065b4       ??_C@_1BE@NDMJHJJG@?$AAs?$AAt?$AAr?$AAn?$AAc?$AAp?$AAy?$AA_?$AAs?$AA?$AA@ 100565b4     LIBCMTD:strncpy_s.obj
 0002:000065c8       __XcptActTab               100565c8     LIBCMTD:winxfltr.obj
 0002:00006658       __XcptActTabCount          10056658     LIBCMTD:winxfltr.obj
 0002:0000665c       __XcptActTabSize           1005665c     LIBCMTD:winxfltr.obj
 0002:00006660       __First_FPE_Indx           10056660     LIBCMTD:winxfltr.obj
 0002:00006664       __Num_FPE                  10056664     LIBCMTD:winxfltr.obj
 0002:00006668       ??_C@_1BC@DENNNKIM@?$AA_?$AAc?$AAr?$AAt?$AAh?$AAe?$AAa?$AAp?$AA?$AA@ 10056668     LIBCMTD:heapinit.obj
 0002:00006680       ??_C@_1GE@JDDMFOID@?$AAf?$AA?3?$AA?2?$AAd?$AAd?$AA?2?$AAv?$AAc?$AAt?$AAo?$AAo?$AAl?$AAs?$AA?2?$AAc?$AAr?$AAt?$AA_?$AAb?$AAl?$AAd?$AA?2?$AAs?$AAe?$AAl?$AAf?$AA_?$AAx?$AA8?$AA6?$AA?2?$AAc@ 10056680     LIBCMTD:heapinit.obj
 0002:000066e4       ??_C@_0DB@OEPBJOLC@f?3?2dd?2vctools?2crt_bld?2self_x86?2c@ 100566e4     LIBCMTD:stdargv.obj
 0002:00006718       ??_C@_0DB@BMEBJJKP@f?3?2dd?2vctools?2crt_bld?2self_x86?2c@ 10056718     LIBCMTD:stdenvp.obj
 0002:00006750       ??_C@_1GC@DGBFLDBN@?$AAf?$AA?3?$AA?2?$AAd?$AAd?$AA?2?$AAv?$AAc?$AAt?$AAo?$AAo?$AAl?$AAs?$AA?2?$AAc?$AAr?$AAt?$AA_?$AAb?$AAl?$AAd?$AA?2?$AAs?$AAe?$AAl?$AAf?$AA_?$AAx?$AA8?$AA6?$AA?2?$AAc@ 10056750     LIBCMTD:stdenvp.obj
 0002:000067b4       ??_C@_1BC@GHMCNHHL@?$AA_?$AAs?$AAe?$AAt?$AAe?$AAn?$AAv?$AAp?$AA?$AA@ 100567b4     LIBCMTD:stdenvp.obj
 0002:000067c8       ??_C@_1DE@MMOGFGHF@?$AAs?$AAt?$AAr?$AAc?$AAp?$AAy?$AA_?$AAs?$AA?$CI?$AA?$CK?$AAe?$AAn?$AAv?$AA?0?$AA?5?$AAc?$AAc?$AAh?$AAa?$AAr?$AAs?$AA?0?$AA?5?$AAp?$AA?$CJ?$AA?$AA@ 100567c8     LIBCMTD:stdenvp.obj
 0002:000067fc       ??_C@_0CP@PPLBCJDN@f?3?2dd?2vctools?2crt_bld?2self_x86?2c@ 100567fc     LIBCMTD:a_env.obj
 0002:0000682c       ??_C@_0DA@HMCPFNKN@f?3?2dd?2vctools?2crt_bld?2self_x86?2c@ 1005682c     LIBCMTD:onexit.obj
 0002:0000685c       ??_C@_1BC@JLLICHIC@?$AAp?$AAn?$AAh?$AA?5?$AA?$DN?$AA?$DN?$AA?5?$AA0?$AA?$AA@ 1005685c     LIBCMTD:handler.obj
 0002:00006870       ??_C@_1GG@CDHAPCGF@?$AAf?$AA?3?$AA?2?$AAd?$AAd?$AA?2?$AAv?$AAc?$AAt?$AAo?$AAo?$AAl?$AAs?$AA?2?$AAc?$AAr?$AAt?$AA_?$AAb?$AAl?$AAd?$AA?2?$AAs?$AAe?$AAl?$AAf?$AA_?$AAx?$AA8?$AA6?$AA?2?$AAc@ 10056870     LIBCMTD:handler.obj
 0002:000068d8       ??_C@_0DC@CFDMMFIG@f?3?2dd?2vctools?2crt_bld?2self_x86?2c@ 100568d8     LIBCMTD:inithelp.obj
 0002:00006910       ??_C@_1GE@PLPIMDHG@?$AAf?$AA?3?$AA?2?$AAd?$AAd?$AA?2?$AAv?$AAc?$AAt?$AAo?$AAo?$AAl?$AAs?$AA?2?$AAc?$AAr?$AAt?$AA_?$AAb?$AAl?$AAd?$AA?2?$AAs?$AAe?$AAl?$AAf?$AA_?$AAx?$AA8?$AA6?$AA?2?$AAc@ 10056910     LIBCMTD:inithelp.obj
 0002:00006974       ??_C@_1CA@KHHCPEI@?$AA_?$AA_?$AAg?$AAe?$AAt?$AAl?$AAo?$AAc?$AAa?$AAl?$AAe?$AAi?$AAn?$AAf?$AAo?$AA?$AA@ 10056974     LIBCMTD:inithelp.obj
 0002:00006998       ??_C@_1GO@NGIGJNHH@?$AAs?$AAt?$AAr?$AAn?$AAc?$AAp?$AAy?$AA_?$AAs?$AA?$CI?$AA?$CK?$AAs?$AAt?$AAr?$AAa?$AAd?$AAd?$AAr?$AAe?$AAs?$AAs?$AA?0?$AA?5?$AAo?$AAu?$AAt?$AAs?$AAi?$AAz?$AAe?$AA?0?$AA?5@ 10056998     LIBCMTD:inithelp.obj
 0002:00006a08       ??_C@_1CK@GFDNDKK@?$AA_?$AAR?$AAa?$AAn?$AAd?$AAo?$AAm?$AAV?$AAa?$AAl?$AAu?$AAe?$AA?5?$AA?$CB?$AA?$DN?$AA?5?$AAN?$AAU?$AAL?$AAL?$AA?$AA@ 10056a08     LIBCMTD:rand_s.obj
 0002:00006a38       ??_C@_1GA@HBGBBKCD@?$AAf?$AA?3?$AA?2?$AAd?$AAd?$AA?2?$AAv?$AAc?$AAt?$AAo?$AAo?$AAl?$AAs?$AA?2?$AAc?$AAr?$AAt?$AA_?$AAb?$AAl?$AAd?$AA?2?$AAs?$AAe?$AAl?$AAf?$AA_?$AAx?$AA8?$AA6?$AA?2?$AAc@ 10056a38     LIBCMTD:rand_s.obj
 0002:00006a98       ??_C@_1O@IJGPPOGF@?$AAr?$AAa?$AAn?$AAd?$AA_?$AAs?$AA?$AA@ 10056a98     LIBCMTD:rand_s.obj
 0002:00006aa8       ??_C@_1GA@EBEDGGGB@?$AA?$CI?$AA?$CC?$AAr?$AAa?$AAn?$AAd?$AA_?$AAs?$AA?5?$AAi?$AAs?$AA?5?$AAn?$AAo?$AAt?$AA?5?$AAa?$AAv?$AAa?$AAi?$AAl?$AAa?$AAb?$AAl?$AAe?$AA?5?$AAo?$AAn?$AA?5?$AAt?$AAh?$AAi@ 10056aa8     LIBCMTD:rand_s.obj
 0002:00006b08       ??_C@_0BC@JEAENNKH@SystemFunction036?$AA@ 10056b08     LIBCMTD:rand_s.obj
 0002:00006b2c       ??_C@_1M@HPNHIDJI@?$AAj?$AAa?$AA?9?$AAJ?$AAP?$AA?$AA@ 10056b2c     LIBCMTD:mbctype.obj
 0002:00006b38       ??_C@_1M@BIBDDEMK@?$AAz?$AAh?$AA?9?$AAC?$AAN?$AA?$AA@ 10056b38     LIBCMTD:mbctype.obj
 0002:00006b44       ??_C@_1M@JLOOOEGK@?$AAk?$AAo?$AA?9?$AAK?$AAR?$AA?$AA@ 10056b44     LIBCMTD:mbctype.obj
 0002:00006b50       ??_C@_1M@CLNBBOPM@?$AAz?$AAh?$AA?9?$AAT?$AAW?$AA?$AA@ 10056b50     LIBCMTD:mbctype.obj
 0002:00006b5c       ??_C@_0DB@MHMEONEC@f?3?2dd?2vctools?2crt_bld?2self_x86?2c@ 10056b5c     LIBCMTD:mbctype.obj
 0002:00006b90       ??_C@_1HC@KFLBHHBC@?$AA?$CI?$AAf?$AAi?$AAl?$AAe?$AAd?$AAe?$AAs?$AA?5?$AA?$DO?$AA?$DN?$AA?5?$AA0?$AA?5?$AA?$CG?$AA?$CG?$AA?5?$AA?$CI?$AAu?$AAn?$AAs?$AAi?$AAg?$AAn?$AAe?$AAd?$AA?$CJ?$AAf?$AAi?$AAl?$AAe?$AAd@ 10056b90     LIBCMTD:commit.obj
 0002:00006c08       ??_C@_1GA@BOPCOCFN@?$AAf?$AA?3?$AA?2?$AAd?$AAd?$AA?2?$AAv?$AAc?$AAt?$AAo?$AAo?$AAl?$AAs?$AA?2?$AAc?$AAr?$AAt?$AA_?$AAb?$AAl?$AAd?$AA?2?$AAs?$AAe?$AAl?$AAf?$AA_?$AAx?$AA8?$AA6?$AA?2?$AAc@ 10056c08     LIBCMTD:commit.obj
 0002:00006c68       ??_C@_1BA@FLNMBBIM@?$AA_?$AAc?$AAo?$AAm?$AAm?$AAi?$AAt?$AA?$AA@ 10056c68     LIBCMTD:commit.obj
 0002:00006c78       ??_C@_1DG@LNNHNFHJ@?$AA?$CI?$AA_?$AAo?$AAs?$AAf?$AAi?$AAl?$AAe?$AA?$CI?$AAf?$AAi?$AAl?$AAe?$AAd?$AAe?$AAs?$AA?$CJ?$AA?5?$AA?$CG?$AA?5?$AAF?$AAO?$AAP?$AAE?$AAN?$AA?$CJ?$AA?$AA@ 10056c78     LIBCMTD:commit.obj
 0002:00006cb0       ??_C@_1BO@KIJENGPH@?$AAs?$AAt?$AAr?$AAe?$AAa?$AAm?$AA?5?$AA?$CB?$AA?$DN?$AA?5?$AAN?$AAU?$AAL?$AAL?$AA?$AA@ 10056cb0     LIBCMTD:_freebuf.obj
 0002:00006cd0       ??_C@_1GE@MIMBMOF@?$AAf?$AA?3?$AA?2?$AAd?$AAd?$AA?2?$AAv?$AAc?$AAt?$AAo?$AAo?$AAl?$AAs?$AA?2?$AAc?$AAr?$AAt?$AA_?$AAb?$AAl?$AAd?$AA?2?$AAs?$AAe?$AAl?$AAf?$AA_?$AAx?$AA8?$AA6?$AA?2?$AAc@ 10056cd0     LIBCMTD:_freebuf.obj
 0002:00006d38       ??_C@_1GE@MBMBDAGC@?$AAf?$AA?3?$AA?2?$AAd?$AAd?$AA?2?$AAv?$AAc?$AAt?$AAo?$AAo?$AAl?$AAs?$AA?2?$AAc?$AAr?$AAt?$AA_?$AAb?$AAl?$AAd?$AA?2?$AAs?$AAe?$AAl?$AAf?$AA_?$AAx?$AA8?$AA6?$AA?2?$AAc@ 10056d38     LIBCMTD:vfwprint.obj
 0002:00006d9c       ??_C@_1CC@MONNFDCM@?$AAv?$AAf?$AAw?$AAp?$AAr?$AAi?$AAn?$AAt?$AAf?$AA_?$AAh?$AAe?$AAl?$AAp?$AAe?$AAr?$AA?$AA@ 10056d9c     LIBCMTD:vfwprint.obj
 0002:00006dc0       ??_C@_1BG@BBCDFOMA@?$AA_?$AAw?$AAo?$AAu?$AAt?$AAp?$AAu?$AAt?$AA_?$AAl?$AA?$AA@ 10056dc0     LIBCMTD:woutput.obj
 0002:00006dd8       ??_C@_1GC@GNCCMPNN@?$AAf?$AA?3?$AA?2?$AAd?$AAd?$AA?2?$AAv?$AAc?$AAt?$AAo?$AAo?$AAl?$AAs?$AA?2?$AAc?$AAr?$AAt?$AA_?$AAb?$AAl?$AAd?$AA?2?$AAs?$AAe?$AAl?$AAf?$AA_?$AAx?$AA8?$AA6?$AA?2?$AAc@ 10056dd8     LIBCMTD:_flsbuf.obj
 0002:00006e40       ??_C@_1HO@MLMGPAFH@?$AA?$CI?$AA?$CC?$AAi?$AAn?$AAc?$AAo?$AAn?$AAs?$AAi?$AAs?$AAt?$AAe?$AAn?$AAt?$AA?5?$AAI?$AAO?$AAB?$AA?5?$AAf?$AAi?$AAe?$AAl?$AAd?$AAs?$AA?$CC?$AA?0?$AA?5?$AAs?$AAt?$AAr?$AAe@ 10056e40     LIBCMTD:_flsbuf.obj
 0002:00006ec0       ??_C@_1BK@ONMFGLDB@?$AA_?$AAw?$AAo?$AAu?$AAt?$AAp?$AAu?$AAt?$AA_?$AAs?$AA_?$AAl?$AA?$AA@ 10056ec0     LIBCMTD:woutputs.obj
 0002:00006ee0       ??_C@_1EE@DMAIGNBG@?$AA?$CI?$AA?$CC?$AAI?$AAn?$AAc?$AAo?$AAr?$AAr?$AAe?$AAc?$AAt?$AA?5?$AAf?$AAo?$AAr?$AAm?$AAa?$AAt?$AA?5?$AAs?$AAp?$AAe?$AAc?$AAi?$AAf?$AAi?$AAe?$AAr?$AA?$CC?$AA?0?$AA?5?$AA0@ 10056ee0     LIBCMTD:woutputs.obj
 0002:00006f28       ??_C@_1FK@LNCFKALM@?$AA?$CI?$AA?$CI?$AAs?$AAt?$AAa?$AAt?$AAe?$AA?5?$AA?$DN?$AA?$DN?$AA?5?$AAS?$AAT?$AA_?$AAN?$AAO?$AAR?$AAM?$AAA?$AAL?$AA?$CJ?$AA?5?$AA?$HM?$AA?$HM?$AA?5?$AA?$CI?$AAs?$AAt?$AAa?$AAt?$AAe?$AA?5@ 10056f28     LIBCMTD:woutputs.obj
 0002:00006f84       ??_C@_1BK@GDEKGMNC@?$AA_?$AAw?$AAo?$AAu?$AAt?$AAp?$AAu?$AAt?$AA_?$AAp?$AA_?$AAl?$AA?$AA@ 10056f84     LIBCMTD:woutputp.obj
 0002:00006fa0       ??_C@_1JC@PFJNKEIO@?$AA?$CI?$AA?$CI?$AAt?$AAy?$AAp?$AAe?$AA_?$AAp?$AAo?$AAs?$AA?5?$AA?$DO?$AA?$DN?$AA?5?$AA0?$AA?$CJ?$AA?5?$AA?$CG?$AA?$CG?$AA?5?$AA?$CI?$AA?$CK?$AAe?$AAn?$AAd?$AA_?$AAp?$AAo?$AAs?$AA?5?$AA?$DN?$AA?$DN@ 10056fa0     LIBCMTD:woutputp.obj
 0002:00007038       ??_C@_1JE@NMBHOLFI@?$AA?$CI?$AA?$CI?$AAw?$AAi?$AAd?$AAt?$AAh?$AA_?$AAp?$AAo?$AAs?$AA?5?$AA?$DO?$AA?$DN?$AA?5?$AA0?$AA?$CJ?$AA?5?$AA?$CG?$AA?$CG?$AA?5?$AA?$CI?$AA?$CK?$AAe?$AAn?$AAd?$AA_?$AAp?$AAo?$AAs?$AA?5?$AA?$DN@ 10057038     LIBCMTD:woutputp.obj
 0002:000070d0       ??_C@_1II@PIPIMLPF@?$AA_?$AAt?$AAv?$AAa?$AAl?$AAi?$AAd?$AAa?$AAt?$AAe?$AA_?$AAp?$AAa?$AAr?$AAa?$AAm?$AA_?$AAr?$AAe?$AAu?$AAs?$AAe?$AA?$CI?$AA?$CG?$AAp?$AAo?$AAs?$AA_?$AAv?$AAa?$AAl?$AAu@ 100570d0     LIBCMTD:woutputp.obj
 0002:00007158       ??_C@_1JG@JBJBOCFB@?$AA?$CI?$AA?$CI?$AAp?$AAr?$AAe?$AAc?$AAi?$AAs?$AA_?$AAp?$AAo?$AAs?$AA?5?$AA?$DO?$AA?$DN?$AA?5?$AA0?$AA?$CJ?$AA?5?$AA?$CG?$AA?$CG?$AA?5?$AA?$CI?$AA?$CK?$AAe?$AAn?$AAd?$AA_?$AAp?$AAo?$AAs?$AA?5@ 10057158     LIBCMTD:woutputp.obj
 0002:000071f0       ??_C@_1IK@EIEPDKHJ@?$AA_?$AAt?$AAv?$AAa?$AAl?$AAi?$AAd?$AAa?$AAt?$AAe?$AA_?$AAp?$AAa?$AAr?$AAa?$AAm?$AA_?$AAr?$AAe?$AAu?$AAs?$AAe?$AA?$CI?$AA?$CG?$AAp?$AAo?$AAs?$AA_?$AAv?$AAa?$AAl?$AAu@ 100571f0     LIBCMTD:woutputp.obj
 0002:00007280       ??_C@_1EM@BNPHBBIA@?$AA?$CI?$AA?$CI?$AAt?$AAy?$AAp?$AAe?$AA_?$AAp?$AAo?$AAs?$AA?$DO?$AA?$DN?$AA0?$AA?$CJ?$AA?5?$AA?$CG?$AA?$CG?$AA?5?$AA?$CI?$AAt?$AAy?$AAp?$AAe?$AA_?$AAp?$AAo?$AAs?$AA?$DM?$AA_?$AAA?$AAR?$AAG@ 10057280     LIBCMTD:woutputp.obj
 0002:000072d0       ??_C@_1IG@FDCPLALG@?$AA_?$AAt?$AAv?$AAa?$AAl?$AAi?$AAd?$AAa?$AAt?$AAe?$AA_?$AAp?$AAa?$AAr?$AAa?$AAm?$AA_?$AAr?$AAe?$AAu?$AAs?$AAe?$AA?$CI?$AA?$CG?$AAp?$AAo?$AAs?$AA_?$AAv?$AAa?$AAl?$AAu@ 100572d0     LIBCMTD:woutputp.obj
 0002:00007358       ??_C@_1IG@HJIMKDHC@?$AA_?$AAt?$AAv?$AAa?$AAl?$AAi?$AAd?$AAa?$AAt?$AAe?$AA_?$AAp?$AAa?$AAr?$AAa?$AAm?$AA_?$AAr?$AAe?$AAu?$AAs?$AAe?$AA?$CI?$AA?$CG?$AAp?$AAo?$AAs?$AA_?$AAv?$AAa?$AAl?$AAu@ 10057358     LIBCMTD:woutputp.obj
 0002:000073e0       ??_C@_1IM@DNGHAPLB@?$AA_?$AAt?$AAv?$AAa?$AAl?$AAi?$AAd?$AAa?$AAt?$AAe?$AA_?$AAp?$AAa?$AAr?$AAa?$AAm?$AA_?$AAr?$AAe?$AAu?$AAs?$AAe?$AA?$CI?$AA?$CG?$AAp?$AAo?$AAs?$AA_?$AAv?$AAa?$AAl?$AAu@ 100573e0     LIBCMTD:woutputp.obj
 0002:0000746c       ??_C@_1DG@GOHGNKHE@?$AAp?$AAa?$AAs?$AAs?$AA?5?$AA?$DN?$AA?$DN?$AA?5?$AAF?$AAO?$AAR?$AAM?$AAA?$AAT?$AA_?$AAO?$AAU?$AAT?$AAP?$AAU?$AAT?$AA_?$AAP?$AAA?$AAS?$AAS?$AA?$AA@ 1005746c     LIBCMTD:woutputp.obj
 0002:000074a8       ??_C@_1IK@NBGDDCBN@?$AA_?$AAt?$AAv?$AAa?$AAl?$AAi?$AAd?$AAa?$AAt?$AAe?$AA_?$AAp?$AAa?$AAr?$AAa?$AAm?$AA_?$AAr?$AAe?$AAu?$AAs?$AAe?$AA?$CI?$AA?$CG?$AAp?$AAo?$AAs?$AA_?$AAv?$AAa?$AAl?$AAu@ 100574a8     LIBCMTD:woutputp.obj
 0002:00007538       ??_C@_1JC@OACKELNN@?$AA_?$AAt?$AAv?$AAa?$AAl?$AAi?$AAd?$AAa?$AAt?$AAe?$AA_?$AAp?$AAa?$AAr?$AAa?$AAm?$AA_?$AAr?$AAe?$AAu?$AAs?$AAe?$AA?$CI?$AA?$CG?$AAp?$AAo?$AAs?$AA_?$AAv?$AAa?$AAl?$AAu@ 10057538     LIBCMTD:woutputp.obj
 0002:000075d0       ??_C@_1FK@BCPANIEK@?$AA?$CI?$AA?$CC?$AAM?$AAi?$AAs?$AAs?$AAi?$AAn?$AAg?$AA?5?$AAp?$AAo?$AAs?$AAi?$AAt?$AAi?$AAo?$AAn?$AA?5?$AAi?$AAn?$AA?5?$AAt?$AAh?$AAe?$AA?5?$AAf?$AAo?$AAr?$AAm?$AAa?$AAt@ 100575d0     LIBCMTD:woutputp.obj
 0002:0000762c       ??_C@_1BE@PMMBFFCC@?$AAw?$AAc?$AAs?$AAn?$AAc?$AAp?$AAy?$AA_?$AAs?$AA?$AA@ 1005762c     LIBCMTD:wcsncpy_s.obj
 0002:0000764c       ??_C@_03KHICJKCI@?4?4?4?$AA@ 1005764c     LIBCMTD:dbgrpt.obj
 0002:00007650       ??_C@_1CG@GNMJDMIO@?$AA_?$AAC?$AAr?$AAt?$AAS?$AAe?$AAt?$AAR?$AAe?$AAp?$AAo?$AAr?$AAt?$AAH?$AAo?$AAo?$AAk?$AA2?$AA?$AA@ 10057650     LIBCMTD:dbgrpt.obj
 0002:00007678       ??_C@_1CI@IDOKFLAJ@?$AA_?$AA_?$AAc?$AAr?$AAt?$AAM?$AAe?$AAs?$AAs?$AAa?$AAg?$AAe?$AAW?$AAi?$AAn?$AAd?$AAo?$AAw?$AAA?$AA?$AA@ 10057678     LIBCMTD:dbgrpt.obj
 0002:000076a0       ??_C@_1GG@DLDHOIGE@?$AAs?$AAt?$AAr?$AAc?$AAp?$AAy?$AA_?$AAs?$AA?$CI?$AAs?$AAz?$AAE?$AAx?$AAe?$AAN?$AAa?$AAm?$AAe?$AA?0?$AA?5?$AA2?$AA6?$AA0?$AA?0?$AA?5?$AA?$CC?$AA?$DM?$AAp?$AAr?$AAo?$AAg?$AAr@ 100576a0     LIBCMTD:dbgrpt.obj
 0002:00007708       ??_C@_0BH@DNAGHKFM@?$DMprogram?5name?5unknown?$DO?$AA@ 10057708     LIBCMTD:dbgrpt.obj
 0002:00007720       ??_C@_1LG@BEHAHJLI@?$AAD?$AAe?$AAb?$AAu?$AAg?$AA?5?$AA?$CF?$AAs?$AA?$CB?$AA?6?$AA?6?$AAP?$AAr?$AAo?$AAg?$AAr?$AAa?$AAm?$AA?3?$AA?5?$AA?$CF?$AAh?$AAs?$AA?$CF?$AAs?$AA?$CF?$AAs?$AA?$CF?$AAh?$AAs?$AA?$CF?$AAs@ 10057720     LIBCMTD:dbgrpt.obj
 0002:000077d8       ??_C@_1BJK@FEBNHLFF@?$AA?$CI?$AA?$CI?$AAp?$AAt?$AAl?$AAo?$AAc?$AAi?$AA?9?$AA?$DO?$AAl?$AAc?$AA_?$AAc?$AAa?$AAt?$AAe?$AAg?$AAo?$AAr?$AAy?$AA?$FL?$AAc?$AAa?$AAt?$AAe?$AAg?$AAo?$AAr?$AAy?$AA?$FN?$AA?4@ 100577d8     LIBCMTD:localref.obj
 0002:00007978       ??_C@_1GE@HMAALBPJ@?$AAf?$AA?3?$AA?2?$AAd?$AAd?$AA?2?$AAv?$AAc?$AAt?$AAo?$AAo?$AAl?$AAs?$AA?2?$AAc?$AAr?$AAt?$AA_?$AAb?$AAl?$AAd?$AA?2?$AAs?$AAe?$AAl?$AAf?$AA_?$AAx?$AA8?$AA6?$AA?2?$AAc@ 10057978     LIBCMTD:localref.obj
 0002:000079e0       ??_C@_1GE@BDKOPHIO@?$AAf?$AA?3?$AA?2?$AAd?$AAd?$AA?2?$AAv?$AAc?$AAt?$AAo?$AAo?$AAl?$AAs?$AA?2?$AAc?$AAr?$AAt?$AA_?$AAb?$AAl?$AAd?$AA?2?$AAs?$AAe?$AAl?$AAf?$AA_?$AAx?$AA8?$AA6?$AA?2?$AAc@ 100579e0     LIBCMTD:_fptostr.obj
 0002:00007a44       ??_C@_1BC@OPALLEB@?$AA_?$AAf?$AAp?$AAt?$AAo?$AAs?$AAt?$AAr?$AA?$AA@ 10057a44     LIBCMTD:_fptostr.obj
 0002:00007a58       ??_C@_1GM@CEDLGDDI@?$AAs?$AAi?$AAz?$AAe?$AAI?$AAn?$AAB?$AAy?$AAt?$AAe?$AAs?$AA?5?$AA?$DO?$AA?5?$AA?$CI?$AAs?$AAi?$AAz?$AAe?$AA_?$AAt?$AA?$CJ?$AA?$CI?$AA?$CI?$AAd?$AAi?$AAg?$AAi?$AAt?$AAs?$AA?5?$AA?$DO@ 10057a58     LIBCMTD:_fptostr.obj
 0002:00007ac4       ??_C@_1BK@CLIEHFDF@?$AAp?$AAf?$AAl?$AAt?$AA?5?$AA?$CB?$AA?$DN?$AA?5?$AAN?$AAU?$AAL?$AAL?$AA?$AA@ 10057ac4     LIBCMTD:_fptostr.obj
 0002:00007ae0       ??_C@_1HC@PKFDNKN@?$AAf?$AA?3?$AA?2?$AAd?$AAd?$AA?2?$AAv?$AAc?$AAt?$AAo?$AAo?$AAl?$AAs?$AA?2?$AAc?$AAr?$AAt?$AA_?$AAb?$AAl?$AAd?$AA?2?$AAs?$AAe?$AAl?$AAf?$AA_?$AAx?$AA8?$AA6?$AA?2?$AAc@ 10057ae0     LIBCMTD:cfout.obj
 0002:00007b54       ??_C@_1BC@BPMMEHLK@?$AA_?$AAf?$AAl?$AAt?$AAo?$AAu?$AAt?$AA2?$AA?$AA@ 10057b54     LIBCMTD:cfout.obj
 0002:00007b68       ??_C@_1FK@KODCOBKF@?$AAs?$AAt?$AAr?$AAc?$AAp?$AAy?$AA_?$AAs?$AA?$CI?$AAr?$AAe?$AAs?$AAu?$AAl?$AAt?$AAs?$AAt?$AAr?$AA?0?$AA?5?$AAr?$AAe?$AAs?$AAu?$AAl?$AAt?$AAs?$AAi?$AAz?$AAe?$AA?0?$AA?5@ 10057b68     LIBCMTD:cfout.obj
 0002:00007bc4       ??_C@_03KOEHGMDN@Sun?$AA@  10057bc4     LIBCMTD:nlsdata.obj
 0002:00007bc8       ??_C@_03PDAGKDH@Mon?$AA@   10057bc8     LIBCMTD:nlsdata.obj
 0002:00007bcc       ??_C@_03NAGEINEP@Tue?$AA@  10057bcc     LIBCMTD:nlsdata.obj
 0002:00007bd0       ??_C@_03MHOMLAJA@Wed?$AA@  10057bd0     LIBCMTD:nlsdata.obj
 0002:00007bd4       ??_C@_03IOFIKPDN@Thu?$AA@  10057bd4     LIBCMTD:nlsdata.obj
 0002:00007bd8       ??_C@_03IDIOELNC@Fri?$AA@  10057bd8     LIBCMTD:nlsdata.obj
 0002:00007bdc       ??_C@_03FEFJNEK@Sat?$AA@   10057bdc     LIBCMTD:nlsdata.obj
 0002:00007be0       ??_C@_06OOPIFAJ@Sunday?$AA@ 10057be0     LIBCMTD:nlsdata.obj
 0002:00007be8       ??_C@_06JLEDEDGH@Monday?$AA@ 10057be8     LIBCMTD:nlsdata.obj
 0002:00007bf0       ??_C@_07BAAGCFCM@Tuesday?$AA@ 10057bf0     LIBCMTD:nlsdata.obj
 0002:00007bf8       ??_C@_09DLIGFAKA@Wednesday?$AA@ 10057bf8     LIBCMTD:nlsdata.obj
 0002:00007c04       ??_C@_08HACCIKIA@Thursday?$AA@ 10057c04     LIBCMTD:nlsdata.obj
 0002:00007c10       ??_C@_06JECMNKMI@Friday?$AA@ 10057c10     LIBCMTD:nlsdata.obj
 0002:00007c18       ??_C@_08INBOOONO@Saturday?$AA@ 10057c18     LIBCMTD:nlsdata.obj
 0002:00007c24       ??_C@_03JIHJHPIE@Jan?$AA@  10057c24     LIBCMTD:nlsdata.obj
 0002:00007c28       ??_C@_03HJBDCHOM@Feb?$AA@  10057c28     LIBCMTD:nlsdata.obj
 0002:00007c2c       ??_C@_03ODNJBKGA@Mar?$AA@  10057c2c     LIBCMTD:nlsdata.obj
 0002:00007c30       ??_C@_03LEOLGMJP@Apr?$AA@  10057c30     LIBCMTD:nlsdata.obj
 0002:00007c34       ??_C@_03CNMDKL@May?$AA@    10057c34     LIBCMTD:nlsdata.obj
 0002:00007c38       ??_C@_03IDFGHECI@Jun?$AA@  10057c38     LIBCMTD:nlsdata.obj
 0002:00007c3c       ??_C@_03LBGABGKK@Jul?$AA@  10057c3c     LIBCMTD:nlsdata.obj
 0002:00007c40       ??_C@_03IFJFEIGA@Aug?$AA@  10057c40     LIBCMTD:nlsdata.obj
 0002:00007c44       ??_C@_03GGCAPAJC@Sep?$AA@  10057c44     LIBCMTD:nlsdata.obj
 0002:00007c48       ??_C@_03BMAOKBAD@Oct?$AA@  10057c48     LIBCMTD:nlsdata.obj
 0002:00007c4c       ??_C@_03JPJOFNIA@Nov?$AA@  10057c4c     LIBCMTD:nlsdata.obj
 0002:00007c50       ??_C@_03MKABNOCG@Dec?$AA@  10057c50     LIBCMTD:nlsdata.obj
 0002:00007c54       ??_C@_07CGJPFGJA@January?$AA@ 10057c54     LIBCMTD:nlsdata.obj
 0002:00007c5c       ??_C@_08GNJGEPFN@February?$AA@ 10057c5c     LIBCMTD:nlsdata.obj
 0002:00007c68       ??_C@_05HPCKOFNC@March?$AA@ 10057c68     LIBCMTD:nlsdata.obj
 0002:00007c70       ??_C@_05DMJDNLEJ@April?$AA@ 10057c70     LIBCMTD:nlsdata.obj
 0002:00007c78       ??_C@_04CNLMGBGM@June?$AA@ 10057c78     LIBCMTD:nlsdata.obj
 0002:00007c80       ??_C@_04MIEPOIFP@July?$AA@ 10057c80     LIBCMTD:nlsdata.obj
 0002:00007c88       ??_C@_06LBBHFDDG@August?$AA@ 10057c88     LIBCMTD:nlsdata.obj
 0002:00007c90       ??_C@_09BHHEALKD@September?$AA@ 10057c90     LIBCMTD:nlsdata.obj
 0002:00007c9c       ??_C@_07JJNFCEND@October?$AA@ 10057c9c     LIBCMTD:nlsdata.obj
 0002:00007ca4       ??_C@_08HCHEGEOA@November?$AA@ 10057ca4     LIBCMTD:nlsdata.obj
 0002:00007cb0       ??_C@_08EDHMEBNP@December?$AA@ 10057cb0     LIBCMTD:nlsdata.obj
 0002:00007cbc       ??_C@_02DEDBPAFC@AM?$AA@   10057cbc     LIBCMTD:nlsdata.obj
 0002:00007cc0       ??_C@_02CJNFDJBF@PM?$AA@   10057cc0     LIBCMTD:nlsdata.obj
 0002:00007cc4       ??_C@_08BPBNCDIB@MM?1dd?1yy?$AA@ 10057cc4     LIBCMTD:nlsdata.obj
 0002:00007cd0       ??_C@_0BE@CKGJFCPC@dddd?0?5MMMM?5dd?0?5yyyy?$AA@ 10057cd0     LIBCMTD:nlsdata.obj
 0002:00007ce4       ??_C@_08JCCMCCIL@HH?3mm?3ss?$AA@ 10057ce4     LIBCMTD:nlsdata.obj
 0002:00007cf0       ??_C@_17MBGCMIPB@?$AAS?$AAu?$AAn?$AA?$AA@ 10057cf0     LIBCMTD:nlsdata.obj
 0002:00007cf8       ??_C@_17KBOMKBF@?$AAM?$AAo?$AAn?$AA?$AA@ 10057cf8     LIBCMTD:nlsdata.obj
 0002:00007d00       ??_C@_17BMKGEGOJ@?$AAT?$AAu?$AAe?$AA?$AA@ 10057d00     LIBCMTD:nlsdata.obj
 0002:00007d08       ??_C@_17CJEDCEPE@?$AAW?$AAe?$AAd?$AA?$AA@ 10057d08     LIBCMTD:nlsdata.obj
 0002:00007d10       ??_C@_17PDPHAADD@?$AAT?$AAh?$AAu?$AA?$AA@ 10057d10     LIBCMTD:nlsdata.obj
 0002:00007d18       ??_C@_17HFOLPPLP@?$AAF?$AAr?$AAi?$AA?$AA@ 10057d18     LIBCMTD:nlsdata.obj
 0002:00007d20       ??_C@_17GGIBDPIH@?$AAS?$AAa?$AAt?$AA?$AA@ 10057d20     LIBCMTD:nlsdata.obj
 0002:00007d28       ??_C@_1O@IHNHDHPB@?$AAS?$AAu?$AAn?$AAd?$AAa?$AAy?$AA?$AA@ 10057d28     LIBCMTD:nlsdata.obj
 0002:00007d38       ??_C@_1O@MMNBFLIA@?$AAM?$AAo?$AAn?$AAd?$AAa?$AAy?$AA?$AA@ 10057d38     LIBCMTD:nlsdata.obj
 0002:00007d48       ??_C@_1BA@ENFBFFEK@?$AAT?$AAu?$AAe?$AAs?$AAd?$AAa?$AAy?$AA?$AA@ 10057d48     LIBCMTD:nlsdata.obj
 0002:00007d58       ??_C@_1BE@EBOGMDOH@?$AAW?$AAe?$AAd?$AAn?$AAe?$AAs?$AAd?$AAa?$AAy?$AA?$AA@ 10057d58     LIBCMTD:nlsdata.obj
 0002:00007d6c       ??_C@_1BC@HHMNLIHE@?$AAT?$AAh?$AAu?$AAr?$AAs?$AAd?$AAa?$AAy?$AA?$AA@ 10057d6c     LIBCMTD:nlsdata.obj
 0002:00007d80       ??_C@_1O@PDICJHAG@?$AAF?$AAr?$AAi?$AAd?$AAa?$AAy?$AA?$AA@ 10057d80     LIBCMTD:nlsdata.obj
 0002:00007d90       ??_C@_1BC@ENMNNPAJ@?$AAS?$AAa?$AAt?$AAu?$AAr?$AAd?$AAa?$AAy?$AA?$AA@ 10057d90     LIBCMTD:nlsdata.obj
 0002:00007da4       ??_C@_17DKNBKCHM@?$AAJ?$AAa?$AAn?$AA?$AA@ 10057da4     LIBCMTD:nlsdata.obj
 0002:00007dac       ??_C@_17LMDJEKJN@?$AAF?$AAe?$AAb?$AA?$AA@ 10057dac     LIBCMTD:nlsdata.obj
 0002:00007db4       ??_C@_17CKNLEDEC@?$AAM?$AAa?$AAr?$AA?$AA@ 10057db4     LIBCMTD:nlsdata.obj
 0002:00007dbc       ??_C@_17LFPOIHDD@?$AAA?$AAp?$AAr?$AA?$AA@ 10057dbc     LIBCMTD:nlsdata.obj
 0002:00007dc4       ??_C@_17PNNKMEED@?$AAM?$AAa?$AAy?$AA?$AA@ 10057dc4     LIBCMTD:nlsdata.obj
 0002:00007dcc       ??_C@_17KCJGOCPB@?$AAJ?$AAu?$AAn?$AA?$AA@ 10057dcc     LIBCMTD:nlsdata.obj
 0002:00007dd4       ??_C@_17IJPCKHK@?$AAJ?$AAu?$AAl?$AA?$AA@ 10057dd4     LIBCMTD:nlsdata.obj
 0002:00007ddc       ??_C@_17ICPELBCN@?$AAA?$AAu?$AAg?$AA?$AA@ 10057ddc     LIBCMTD:nlsdata.obj
 0002:00007de4       ??_C@_17HCHCOKMG@?$AAS?$AAe?$AAp?$AA?$AA@ 10057de4     LIBCMTD:nlsdata.obj
 0002:00007dec       ??_C@_17FNLKOI@?$AAO?$AAc?$AAt?$AA?$AA@ 10057dec     LIBCMTD:nlsdata.obj
 0002:00007df4       ??_C@_17BBDMLCIG@?$AAN?$AAo?$AAv?$AA?$AA@ 10057df4     LIBCMTD:nlsdata.obj
 0002:00007dfc       ??_C@_17EGKACKIF@?$AAD?$AAe?$AAc?$AA?$AA@ 10057dfc     LIBCMTD:nlsdata.obj
 0002:00007e04       ??_C@_1BA@EFMEIEBA@?$AAJ?$AAa?$AAn?$AAu?$AAa?$AAr?$AAy?$AA?$AA@ 10057e04     LIBCMTD:nlsdata.obj
 0002:00007e14       ??_C@_1BC@JGDDFFAM@?$AAF?$AAe?$AAb?$AAr?$AAu?$AAa?$AAr?$AAy?$AA?$AA@ 10057e14     LIBCMTD:nlsdata.obj
 0002:00007e28       ??_C@_1M@IKEENEDF@?$AAM?$AAa?$AAr?$AAc?$AAh?$AA?$AA@ 10057e28     LIBCMTD:nlsdata.obj
 0002:00007e34       ??_C@_1M@GJNLMHFD@?$AAA?$AAp?$AAr?$AAi?$AAl?$AA?$AA@ 10057e34     LIBCMTD:nlsdata.obj
 0002:00007e40       ??_C@_19EPFLPGAP@?$AAJ?$AAu?$AAn?$AAe?$AA?$AA@ 10057e40     LIBCMTD:nlsdata.obj
 0002:00007e4c       ??_C@_19BIFMLPCD@?$AAJ?$AAu?$AAl?$AAy?$AA?$AA@ 10057e4c     LIBCMTD:nlsdata.obj
 0002:00007e58       ??_C@_1O@PAHLKOAC@?$AAA?$AAu?$AAg?$AAu?$AAs?$AAt?$AA?$AA@ 10057e58     LIBCMTD:nlsdata.obj
 0002:00007e68       ??_C@_1BE@DKAAMBJL@?$AAS?$AAe?$AAp?$AAt?$AAe?$AAm?$AAb?$AAe?$AAr?$AA?$AA@ 10057e68     LIBCMTD:nlsdata.obj
 0002:00007e7c       ??_C@_1BA@EPANDLNG@?$AAO?$AAc?$AAt?$AAo?$AAb?$AAe?$AAr?$AA?$AA@ 10057e7c     LIBCMTD:nlsdata.obj
 0002:00007e8c       ??_C@_1BC@BGLIFPF@?$AAN?$AAo?$AAv?$AAe?$AAm?$AAb?$AAe?$AAr?$AA?$AA@ 10057e8c     LIBCMTD:nlsdata.obj
 0002:00007ea0       ??_C@_1BC@FEMKIFH@?$AAD?$AAe?$AAc?$AAe?$AAm?$AAb?$AAe?$AAr?$AA?$AA@ 10057ea0     LIBCMTD:nlsdata.obj
 0002:00007eb4       ??_C@_15ODEHAHHF@?$AAA?$AAM?$AA?$AA@ 10057eb4     LIBCMTD:nlsdata.obj
 0002:00007ebc       ??_C@_15CLMNNGEL@?$AAP?$AAM?$AA?$AA@ 10057ebc     LIBCMTD:nlsdata.obj
 0002:00007ec4       ??_C@_1BC@IEBCMHCM@?$AAM?$AAM?$AA?1?$AAd?$AAd?$AA?1?$AAy?$AAy?$AA?$AA@ 10057ec4     LIBCMTD:nlsdata.obj
 0002:00007ed8       ??_C@_1CI@KNAKOEBC@?$AAd?$AAd?$AAd?$AAd?$AA?0?$AA?5?$AAM?$AAM?$AAM?$AAM?$AA?5?$AAd?$AAd?$AA?0?$AA?5?$AAy?$AAy?$AAy?$AAy?$AA?$AA@ 10057ed8     LIBCMTD:nlsdata.obj
 0002:00007f00       ??_C@_1BC@GDGBMEMK@?$AAH?$AAH?$AA?3?$AAm?$AAm?$AA?3?$AAs?$AAs?$AA?$AA@ 10057f00     LIBCMTD:nlsdata.obj
 0002:00007f14       ??_C@_1M@BMHNFIME@?$AAe?$AAn?$AA?9?$AAU?$AAS?$AA?$AA@ 10057f14     LIBCMTD:nlsdata.obj
 0002:00007f20       ??_C@_1EM@EGEEBJLG@?$AA?$CI?$AAo?$AAp?$AAt?$AAi?$AAo?$AAn?$AAs?$AA?5?$AA?$CG?$AA?5?$AA?$HO?$AA_?$AAT?$AAW?$AAO?$AA_?$AAD?$AAI?$AAG?$AAI?$AAT?$AA_?$AAE?$AAX?$AAP?$AAO?$AAN?$AAE?$AAN?$AAT?$AA?$CJ@ 10057f20     LIBCMTD:outputformat.obj
 0002:00007f70       ??_C@_1GM@NFGGJJCM@?$AAf?$AA?3?$AA?2?$AAd?$AAd?$AA?2?$AAv?$AAc?$AAt?$AAo?$AAo?$AAl?$AAs?$AA?2?$AAc?$AAr?$AAt?$AA_?$AAb?$AAl?$AAd?$AA?2?$AAs?$AAe?$AAl?$AAf?$AA_?$AAx?$AA8?$AA6?$AA?2?$AAc@ 10057f70     LIBCMTD:outputformat.obj
 0002:00007fdc       ??_C@_1CG@EBJECAJM@?$AA_?$AAs?$AAe?$AAt?$AA_?$AAo?$AAu?$AAt?$AAp?$AAu?$AAt?$AA_?$AAf?$AAo?$AAr?$AAm?$AAa?$AAt?$AA?$AA@ 10057fdc     LIBCMTD:outputformat.obj
 0002:00008004       ??_C@_1DG@JNDMIEJL@?$AA?$CI?$AA?$CC?$AAI?$AAn?$AAv?$AAa?$AAl?$AAi?$AAd?$AA?5?$AAi?$AAn?$AAp?$AAu?$AAt?$AA?5?$AAv?$AAa?$AAl?$AAu?$AAe?$AA?$CC?$AA?0?$AA?5?$AA0?$AA?$CJ?$AA?$AA@ 10058004     LIBCMTD:contrlfp.obj
 0002:00008040       ??_C@_1HI@JIOCECAH@?$AAf?$AA?3?$AA?2?$AAd?$AAd?$AA?2?$AAv?$AAc?$AAt?$AAo?$AAo?$AAl?$AAs?$AA?2?$AAc?$AAr?$AAt?$AA_?$AAb?$AAl?$AAd?$AA?2?$AAs?$AAe?$AAl?$AAf?$AA_?$AAx?$AA8?$AA6?$AA?2?$AAc@ 10058040     LIBCMTD:contrlfp.obj
 0002:000080b8       ??_C@_1BK@CDOALEA@?$AA_?$AAc?$AAo?$AAn?$AAt?$AAr?$AAo?$AAl?$AAf?$AAp?$AA_?$AAs?$AA?$AA@ 100580b8     LIBCMTD:contrlfp.obj
 0002:000080d8       ??_C@_1GA@KMIDAPAP@?$AAf?$AA?3?$AA?2?$AAd?$AAd?$AA?2?$AAv?$AAc?$AAt?$AAo?$AAo?$AAl?$AAs?$AA?2?$AAc?$AAr?$AAt?$AA_?$AAb?$AAl?$AAd?$AA?2?$AAs?$AAe?$AAl?$AAf?$AA_?$AAx?$AA8?$AA6?$AA?2?$AAc@ 100580d8     LIBCMTD:fclose.obj
 0002:00008138       ??_C@_1O@EGMJNCOI@?$AAf?$AAc?$AAl?$AAo?$AAs?$AAe?$AA?$AA@ 10058138     LIBCMTD:fclose.obj
 0002:00008148       ??_C@_1BO@JINCABEC@?$AA_?$AAf?$AAc?$AAl?$AAo?$AAs?$AAe?$AA_?$AAn?$AAo?$AAl?$AAo?$AAc?$AAk?$AA?$AA@ 10058148     LIBCMTD:fclose.obj
 0002:00008168       ??_C@_1CI@JELMFMDH@?$AAc?$AA?5?$AA?$DO?$AA?$DN?$AA?5?$AA?9?$AA1?$AA?5?$AA?$CG?$AA?$CG?$AA?5?$AAc?$AA?5?$AA?$DM?$AA?$DN?$AA?5?$AA2?$AA5?$AA5?$AA?$AA@ 10058168     LIBCMTD:isctype.obj
 0002:00008190       ??_C@_1GC@CHGJNMHG@?$AAf?$AA?3?$AA?2?$AAd?$AAd?$AA?2?$AAv?$AAc?$AAt?$AAo?$AAo?$AAl?$AAs?$AA?2?$AAc?$AAr?$AAt?$AA_?$AAb?$AAl?$AAd?$AA?2?$AAs?$AAe?$AAl?$AAf?$AA_?$AAx?$AA8?$AA6?$AA?2?$AAc@ 10058190     LIBCMTD:isctype.obj
 0002:000081f4       ??_C@_1BO@KFIJIAEA@?$AAp?$AAB?$AAl?$AAo?$AAc?$AAk?$AA?5?$AA?$CB?$AA?$DN?$AA?5?$AAN?$AAU?$AAL?$AAL?$AA?$AA@ 100581f4     LIBCMTD:expand.obj
 0002:00008218       ??_C@_1GA@EBHFLDNH@?$AAf?$AA?3?$AA?2?$AAd?$AAd?$AA?2?$AAv?$AAc?$AAt?$AAo?$AAo?$AAl?$AAs?$AA?2?$AAc?$AAr?$AAt?$AA_?$AAb?$AAl?$AAd?$AA?2?$AAs?$AAe?$AAl?$AAf?$AA_?$AAx?$AA8?$AA6?$AA?2?$AAc@ 10058218     LIBCMTD:expand.obj
 0002:00008278       ??_C@_1BK@JMCGJOCC@?$AA_?$AAe?$AAx?$AAp?$AAa?$AAn?$AAd?$AA_?$AAb?$AAa?$AAs?$AAe?$AA?$AA@ 10058278     LIBCMTD:expand.obj
 0002:00008298       ??_C@_1GC@BMNPEKNN@?$AAf?$AA?3?$AA?2?$AAd?$AAd?$AA?2?$AAv?$AAc?$AAt?$AAo?$AAo?$AAl?$AAs?$AA?2?$AAc?$AAr?$AAt?$AA_?$AAb?$AAl?$AAd?$AA?2?$AAs?$AAe?$AAl?$AAf?$AA_?$AAx?$AA8?$AA6?$AA?2?$AAc@ 10058298     LIBCMTD:sprintf.obj
 0002:000082fc       ??_C@_1BA@KBJJGFFE@?$AAs?$AAp?$AAr?$AAi?$AAn?$AAt?$AAf?$AA?$AA@ 100582fc     LIBCMTD:sprintf.obj
 0002:0000830c       ??_C@_1CC@OLIJCKA@?$AA?$CI?$AAs?$AAt?$AAr?$AAi?$AAn?$AAg?$AA?5?$AA?$CB?$AA?$DN?$AA?5?$AAN?$AAU?$AAL?$AAL?$AA?$CJ?$AA?$AA@ 1005830c     LIBCMTD:sprintf.obj
 0002:00008330       ___lookuptable_s           10058330     LIBCMTD:outputs.obj
 0002:0000838c       ??_C@_1BI@COFBLHCG@?$AA_?$AAo?$AAu?$AAt?$AAp?$AAu?$AAt?$AA_?$AAs?$AA_?$AAl?$AA?$AA@ 1005838c     LIBCMTD:outputs.obj
 0002:000083a4       ??_C@_1BI@KANOLAMF@?$AA_?$AAo?$AAu?$AAt?$AAp?$AAu?$AAt?$AA_?$AAp?$AA_?$AAl?$AA?$AA@ 100583a4     LIBCMTD:outputp.obj
 0002:000083c0       ??_C@_1IK@MHEDJAMK@?$AA_?$AAt?$AAv?$AAa?$AAl?$AAi?$AAd?$AAa?$AAt?$AAe?$AA_?$AAp?$AAa?$AAr?$AAa?$AAm?$AA_?$AAr?$AAe?$AAu?$AAs?$AAe?$AA?$CI?$AA?$CG?$AAp?$AAo?$AAs?$AA_?$AAv?$AAa?$AAl?$AAu@ 100583c0     LIBCMTD:outputp.obj
 0002:00008450       ??_C@_1GE@DKGHLBLP@?$AAf?$AA?3?$AA?2?$AAd?$AAd?$AA?2?$AAv?$AAc?$AAt?$AAo?$AAo?$AAl?$AAs?$AA?2?$AAc?$AAr?$AAt?$AA_?$AAb?$AAl?$AAd?$AA?2?$AAs?$AAe?$AAl?$AAf?$AA_?$AAx?$AA8?$AA6?$AA?2?$AAc@ 10058450     LIBCMTD:swprintf.obj
 0002:000084b4       ??_C@_1BE@BMIJMLDD@?$AA_?$AAs?$AAw?$AAp?$AAr?$AAi?$AAn?$AAt?$AAf?$AA?$AA@ 100584b4     LIBCMTD:swprintf.obj
 0002:000084c8       ??_C@_1FA@IFFFOLDJ@?$AAn?$AAR?$AAp?$AAt?$AAT?$AAy?$AAp?$AAe?$AA?5?$AA?$DO?$AA?$DN?$AA?5?$AA0?$AA?5?$AA?$CG?$AA?$CG?$AA?5?$AAn?$AAR?$AAp?$AAt?$AAT?$AAy?$AAp?$AAe?$AA?5?$AA?$DM?$AA?5?$AA_?$AAC?$AAR?$AAT@ 100584c8     LIBCMTD:dbgrptt.obj
 0002:00008518       ??_C@_1GC@FIGJJMEN@?$AAf?$AA?3?$AA?2?$AAd?$AAd?$AA?2?$AAv?$AAc?$AAt?$AAo?$AAo?$AAl?$AAs?$AA?2?$AAc?$AAr?$AAt?$AA_?$AAb?$AAl?$AAd?$AA?2?$AAs?$AAe?$AAl?$AAf?$AA_?$AAx?$AA8?$AA6?$AA?2?$AAc@ 10058518     LIBCMTD:dbgrptt.obj
 0002:0000857c       ??_C@_1CE@FIHIECNJ@?$AA_?$AAC?$AAr?$AAt?$AAS?$AAe?$AAt?$AAR?$AAe?$AAp?$AAo?$AAr?$AAt?$AAM?$AAo?$AAd?$AAe?$AA?$AA@ 1005857c     LIBCMTD:dbgrptt.obj
 0002:000085a0       ??_C@_1NK@LOFHIHFC@?$AAf?$AAM?$AAo?$AAd?$AAe?$AA?5?$AA?$DN?$AA?$DN?$AA?5?$AA_?$AAC?$AAR?$AAT?$AAD?$AAB?$AAG?$AA_?$AAR?$AAE?$AAP?$AAO?$AAR?$AAT?$AA_?$AAM?$AAO?$AAD?$AAE?$AA?5?$AA?$HM?$AA?$HM?$AA?5@ 100585a0     LIBCMTD:dbgrptt.obj
 0002:0000867c       ??_C@_1CE@IKKEDCME@?$AA_?$AAC?$AAr?$AAt?$AAS?$AAe?$AAt?$AAR?$AAe?$AAp?$AAo?$AAr?$AAt?$AAF?$AAi?$AAl?$AAe?$AA?$AA@ 1005867c     LIBCMTD:dbgrptt.obj
 0002:000086a0       ??_C@_1CA@KHJHLKA@?$AA_?$AAV?$AAC?$AAr?$AAt?$AAD?$AAb?$AAg?$AAR?$AAe?$AAp?$AAo?$AAr?$AAt?$AAA?$AA?$AA@ 100586a0     LIBCMTD:dbgrptt.obj
 0002:000086c0       ??_C@_1FA@JPHJBHEM@?$AA_?$AAi?$AAt?$AAo?$AAa?$AA_?$AAs?$AA?$CI?$AAn?$AAL?$AAi?$AAn?$AAe?$AA?0?$AA?5?$AAs?$AAz?$AAL?$AAi?$AAn?$AAe?$AAM?$AAe?$AAs?$AAs?$AAa?$AAg?$AAe?$AA?0?$AA?5?$AA4?$AA0@ 100586c0     LIBCMTD:dbgrptt.obj
 0002:00008710       ??_C@_0CG@BNGLOCEO@Second?5Chance?5Assertion?5Failed?3?5@ 10058710     LIBCMTD:dbgrptt.obj
 0002:00008738       ??_C@_0P@DFJNDPOP@?$DMfile?5unknown?$DO?$AA@ 10058738     LIBCMTD:dbgrptt.obj
 0002:00008748       ??_C@_07BHGABMGB@?0?5Line?5?$AA@ 10058748     LIBCMTD:dbgrptt.obj
 0002:00008750       ??_C@_1JI@GAALPGBM@?$AAs?$AAt?$AAr?$AAc?$AAp?$AAy?$AA_?$AAs?$AA?$CI?$AAs?$AAz?$AAU?$AAs?$AAe?$AAr?$AAM?$AAe?$AAs?$AAs?$AAa?$AAg?$AAe?$AA?0?$AA?5?$AA4?$AA0?$AA9?$AA6?$AA?0?$AA?5?$AA?$CC?$AA_@ 10058750     LIBCMTD:dbgrptt.obj
 0002:000087e8       ??_C@_0CL@EACFGMNB@_CrtDbgReport?3?5String?5too?5long?5o@ 100587e8     LIBCMTD:dbgrptt.obj
 0002:00008818       ??_C@_1KK@GIGAEDMO@?$AAs?$AAt?$AAr?$AAc?$AAp?$AAy?$AA_?$AAs?$AA?$CI?$AAs?$AAz?$AAL?$AAi?$AAn?$AAe?$AAM?$AAe?$AAs?$AAs?$AAa?$AAg?$AAe?$AA?0?$AA?5?$AA4?$AA0?$AA9?$AA6?$AA?0?$AA?5?$AAs?$AAz@ 10058818     LIBCMTD:dbgrptt.obj
 0002:000088c4       ??_C@_0BD@CAENFOHP@Assertion?5failed?3?5?$AA@ 100588c4     LIBCMTD:dbgrptt.obj
 0002:000088d8       ??_C@_0BC@LAIDCHCH@Assertion?5failed?$CB?$AA@ 100588d8     LIBCMTD:dbgrptt.obj
 0002:000088f0       ??_C@_1FK@NPGBPOFO@?$AAs?$AAt?$AAr?$AAc?$AAa?$AAt?$AA_?$AAs?$AA?$CI?$AAs?$AAz?$AAL?$AAi?$AAn?$AAe?$AAM?$AAe?$AAs?$AAs?$AAa?$AAg?$AAe?$AA?0?$AA?5?$AA4?$AA0?$AA9?$AA6?$AA?0?$AA?5?$AAs?$AAz@ 100588f0     LIBCMTD:dbgrptt.obj
 0002:00008950       ??_C@_1EI@CACDLAFK@?$AAs?$AAt?$AAr?$AAc?$AAa?$AAt?$AA_?$AAs?$AA?$CI?$AAs?$AAz?$AAL?$AAi?$AAn?$AAe?$AAM?$AAe?$AAs?$AAs?$AAa?$AAg?$AAe?$AA?0?$AA?5?$AA4?$AA0?$AA9?$AA6?$AA?0?$AA?5?$AA?$CC?$AA?2@ 10058950     LIBCMTD:dbgrptt.obj
 0002:00008998       ??_C@_01LIIJDEN@?$AN?$AA@  10058998     LIBCMTD:dbgrptt.obj
 0002:000089a0       ??_C@_1EI@LDHJEDO@?$AAs?$AAt?$AAr?$AAc?$AAa?$AAt?$AA_?$AAs?$AA?$CI?$AAs?$AAz?$AAL?$AAi?$AAn?$AAe?$AAM?$AAe?$AAs?$AAs?$AAa?$AAg?$AAe?$AA?0?$AA?5?$AA4?$AA0?$AA9?$AA6?$AA?0?$AA?5?$AA?$CC?$AA?2@ 100589a0     LIBCMTD:dbgrptt.obj
 0002:000089e8       ??_C@_0M@IPILFDFN@?$CFs?$CI?$CFd?$CJ?5?3?5?$CFs?$AA@ 100589e8     LIBCMTD:dbgrptt.obj
 0002:000089f8       ??_C@_1JG@CPKCIOEE@?$AAs?$AAt?$AAr?$AAc?$AAp?$AAy?$AA_?$AAs?$AA?$CI?$AAs?$AAz?$AAO?$AAu?$AAt?$AAM?$AAe?$AAs?$AAs?$AAa?$AAg?$AAe?$AA?0?$AA?5?$AA4?$AA0?$AA9?$AA6?$AA?0?$AA?5?$AA?$CC?$AA_?$AAC@ 100589f8     LIBCMTD:dbgrptt.obj
 0002:00008a90       ??_C@_1FI@IBIOIHEG@?$AAs?$AAt?$AAr?$AAc?$AAp?$AAy?$AA_?$AAs?$AA?$CI?$AAs?$AAz?$AAO?$AAu?$AAt?$AAM?$AAe?$AAs?$AAs?$AAa?$AAg?$AAe?$AA?0?$AA?5?$AA4?$AA0?$AA9?$AA6?$AA?0?$AA?5?$AAs?$AAz?$AAL@ 10058a90     LIBCMTD:dbgrptt.obj
 0002:00008ae8       ??_C@_1IM@OOKIFKOH@?$AAe?$AA?5?$AA?$DN?$AA?5?$AAm?$AAb?$AAs?$AAt?$AAo?$AAw?$AAc?$AAs?$AA_?$AAs?$AA?$CI?$AA?$CG?$AAr?$AAe?$AAt?$AA?0?$AA?5?$AAs?$AAz?$AAO?$AAu?$AAt?$AAM?$AAe?$AAs?$AAs?$AAa?$AAg@ 10058ae8     LIBCMTD:dbgrptt.obj
 0002:00008b78       ??_C@_1MC@IGEECMDB@?$AAw?$AAc?$AAs?$AAc?$AAp?$AAy?$AA_?$AAs?$AA?$CI?$AAs?$AAz?$AAO?$AAu?$AAt?$AAM?$AAe?$AAs?$AAs?$AAa?$AAg?$AAe?$AA2?$AA?0?$AA?5?$AA4?$AA0?$AA9?$AA6?$AA?0?$AA?5?$AAL?$AA?$CC@ 10058b78     LIBCMTD:dbgrptt.obj
 0002:00008c40       ??_C@_1HO@PJOFIKFE@?$AA_?$AAC?$AAr?$AAt?$AAD?$AAb?$AAg?$AAR?$AAe?$AAp?$AAo?$AAr?$AAt?$AA?3?$AA?5?$AAS?$AAt?$AAr?$AAi?$AAn?$AAg?$AA?5?$AAt?$AAo?$AAo?$AA?5?$AAl?$AAo?$AAn?$AAg?$AA?5?$AAo@ 10058c40     LIBCMTD:dbgrptt.obj
 0002:00008cc0       ??_C@_1CA@HPALHDOD@?$AA_?$AAV?$AAC?$AAr?$AAt?$AAD?$AAb?$AAg?$AAR?$AAe?$AAp?$AAo?$AAr?$AAt?$AAW?$AA?$AA@ 10058cc0     LIBCMTD:dbgrptt.obj
 0002:00008ce0       ??_C@_1FA@CNLLOMHI@?$AA_?$AAi?$AAt?$AAo?$AAw?$AA_?$AAs?$AA?$CI?$AAn?$AAL?$AAi?$AAn?$AAe?$AA?0?$AA?5?$AAs?$AAz?$AAL?$AAi?$AAn?$AAe?$AAM?$AAe?$AAs?$AAs?$AAa?$AAg?$AAe?$AA?0?$AA?5?$AA4?$AA0@ 10058ce0     LIBCMTD:dbgrptt.obj
 0002:00008d30       ??_C@_1EM@MJFLEDMB@?$AAS?$AAe?$AAc?$AAo?$AAn?$AAd?$AA?5?$AAC?$AAh?$AAa?$AAn?$AAc?$AAe?$AA?5?$AAA?$AAs?$AAs?$AAe?$AAr?$AAt?$AAi?$AAo?$AAn?$AA?5?$AAF?$AAa?$AAi?$AAl?$AAe?$AAd?$AA?3?$AA?5@ 10058d30     LIBCMTD:dbgrptt.obj
 0002:00008d7c       ??_C@_1BO@OCHMLCAG@?$AA?$DM?$AAf?$AAi?$AAl?$AAe?$AA?5?$AAu?$AAn?$AAk?$AAn?$AAo?$AAw?$AAn?$AA?$DO?$AA?$AA@ 10058d7c     LIBCMTD:dbgrptt.obj
 0002:00008d9c       ??_C@_1BA@ELMMDCFC@?$AA?0?$AA?5?$AAL?$AAi?$AAn?$AAe?$AA?5?$AA?$AA@ 10058d9c     LIBCMTD:dbgrptt.obj
 0002:00008db0       ??_C@_1JK@KHFABAEO@?$AAw?$AAc?$AAs?$AAc?$AAp?$AAy?$AA_?$AAs?$AA?$CI?$AAs?$AAz?$AAU?$AAs?$AAe?$AAr?$AAM?$AAe?$AAs?$AAs?$AAa?$AAg?$AAe?$AA?0?$AA?5?$AA4?$AA0?$AA9?$AA6?$AA?0?$AA?5?$AAL?$AA?$CC@ 10058db0     LIBCMTD:dbgrptt.obj
 0002:00008e50       ??_C@_1KO@DGAHENCH@?$AAw?$AAc?$AAs?$AAc?$AAp?$AAy?$AA_?$AAs?$AA?$CI?$AAs?$AAz?$AAL?$AAi?$AAn?$AAe?$AAM?$AAe?$AAs?$AAs?$AAa?$AAg?$AAe?$AA?0?$AA?5?$AA4?$AA0?$AA9?$AA6?$AA?0?$AA?5?$AAs?$AAz@ 10058e50     LIBCMTD:dbgrptt.obj
 0002:00008f00       ??_C@_1CG@FFFGGODN@?$AAA?$AAs?$AAs?$AAe?$AAr?$AAt?$AAi?$AAo?$AAn?$AA?5?$AAf?$AAa?$AAi?$AAl?$AAe?$AAd?$AA?3?$AA?5?$AA?$AA@ 10058f00     LIBCMTD:dbgrptt.obj
 0002:00008f28       ??_C@_1FK@HPADHBBD@?$AAw?$AAc?$AAs?$AAc?$AAa?$AAt?$AA_?$AAs?$AA?$CI?$AAs?$AAz?$AAL?$AAi?$AAn?$AAe?$AAM?$AAe?$AAs?$AAs?$AAa?$AAg?$AAe?$AA?0?$AA?5?$AA4?$AA0?$AA9?$AA6?$AA?0?$AA?5?$AAs?$AAz@ 10058f28     LIBCMTD:dbgrptt.obj
 0002:00008f88       ??_C@_1EK@NMDFGHMF@?$AAw?$AAc?$AAs?$AAc?$AAa?$AAt?$AA_?$AAs?$AA?$CI?$AAs?$AAz?$AAL?$AAi?$AAn?$AAe?$AAM?$AAe?$AAs?$AAs?$AAa?$AAg?$AAe?$AA?0?$AA?5?$AA4?$AA0?$AA9?$AA6?$AA?0?$AA?5?$AAL?$AA?$CC@ 10058f88     LIBCMTD:dbgrptt.obj
 0002:00008fd4       ??_C@_13CMNBPIDO@?$AA?$AN?$AA?$AA@ 10058fd4     LIBCMTD:dbgrptt.obj
 0002:00008fd8       ??_C@_1EK@PHCBEDKB@?$AAw?$AAc?$AAs?$AAc?$AAa?$AAt?$AA_?$AAs?$AA?$CI?$AAs?$AAz?$AAL?$AAi?$AAn?$AAe?$AAM?$AAe?$AAs?$AAs?$AAa?$AAg?$AAe?$AA?0?$AA?5?$AA4?$AA0?$AA9?$AA6?$AA?0?$AA?5?$AAL?$AA?$CC@ 10058fd8     LIBCMTD:dbgrptt.obj
 0002:00009024       ??_C@_1BI@JIDBEPIG@?$AA?$CF?$AAs?$AA?$CI?$AA?$CF?$AAd?$AA?$CJ?$AA?5?$AA?3?$AA?5?$AA?$CF?$AAs?$AA?$AA@ 10059024     LIBCMTD:dbgrptt.obj
 0002:00009040       ??_C@_1FI@DBAIJPJE@?$AAw?$AAc?$AAs?$AAc?$AAp?$AAy?$AA_?$AAs?$AA?$CI?$AAs?$AAz?$AAO?$AAu?$AAt?$AAM?$AAe?$AAs?$AAs?$AAa?$AAg?$AAe?$AA?0?$AA?5?$AA4?$AA0?$AA9?$AA6?$AA?0?$AA?5?$AAs?$AAz?$AAL@ 10059040     LIBCMTD:dbgrptt.obj
 0002:00009098       ??_C@_1JC@EOAPFDLN@?$AAw?$AAc?$AAs?$AAt?$AAo?$AAm?$AAb?$AAs?$AA_?$AAs?$AA?$CI?$AA?$CI?$AA?$CI?$AAv?$AAo?$AAi?$AAd?$AA?5?$AA?$CK?$AA?$CJ?$AA0?$AA?$CJ?$AA?0?$AA?5?$AAs?$AAz?$AAO?$AAu?$AAt?$AAM?$AAe?$AAs@ 10059098     LIBCMTD:dbgrptt.obj
 0002:00009130       ??_C@_1MA@LBAMNNOB@?$AAs?$AAt?$AAr?$AAc?$AAp?$AAy?$AA_?$AAs?$AA?$CI?$AAs?$AAz?$AAO?$AAu?$AAt?$AAM?$AAe?$AAs?$AAs?$AAa?$AAg?$AAe?$AA2?$AA?0?$AA?5?$AA4?$AA0?$AA9?$AA6?$AA?0?$AA?5?$AA?$CC?$AA_@ 10059130     LIBCMTD:dbgrptt.obj
 0002:000091f0       ??_C@_0DP@GNPEPHJD@_CrtDbgReport?3?5String?5too?5long?5o@ 100591f0     LIBCMTD:dbgrptt.obj
 0002:00009230       ??_C@_1IE@CPGKIAGP@?$AAw?$AAc?$AAs?$AAt?$AAo?$AAm?$AAb?$AAs?$AA_?$AAs?$AA?$CI?$AA?$CG?$AAr?$AAe?$AAt?$AA?0?$AA?5?$AAs?$AAz?$AAa?$AAO?$AAu?$AAt?$AAM?$AAe?$AAs?$AAs?$AAa?$AAg?$AAe?$AA?0?$AA?5@ 10059230     LIBCMTD:dbgrptt.obj
 0002:000092b8       ??_C@_1GA@LPGDJDEN@?$AAf?$AA?3?$AA?2?$AAd?$AAd?$AA?2?$AAv?$AAc?$AAt?$AAo?$AAo?$AAl?$AAs?$AA?2?$AAc?$AAr?$AAt?$AA_?$AAb?$AAl?$AAd?$AA?2?$AAs?$AAe?$AAl?$AAf?$AA_?$AAx?$AA8?$AA6?$AA?2?$AAc@ 100592b8     LIBCMTD:isatty.obj
 0002:00009318       ??_C@_1BA@LEBDGIHM@?$AA_?$AAi?$AAs?$AAa?$AAt?$AAt?$AAy?$AA?$AA@ 10059318     LIBCMTD:isatty.obj
 0002:00009328       ??_C@_1CO@HFMIILNF@?$AAs?$AAi?$AAz?$AAe?$AAI?$AAn?$AAB?$AAy?$AAt?$AAe?$AAs?$AA?5?$AA?$DM?$AA?$DN?$AA?5?$AAI?$AAN?$AAT?$AA_?$AAM?$AAA?$AAX?$AA?$AA@ 10059328     LIBCMTD:wctomb.obj
 0002:00009358       ??_C@_1GA@LDLHPOO@?$AAf?$AA?3?$AA?2?$AAd?$AAd?$AA?2?$AAv?$AAc?$AAt?$AAo?$AAo?$AAl?$AAs?$AA?2?$AAc?$AAr?$AAt?$AA_?$AAb?$AAl?$AAd?$AA?2?$AAs?$AAe?$AAl?$AAf?$AA_?$AAx?$AA8?$AA6?$AA?2?$AAc@ 10059358     LIBCMTD:wctomb.obj
 0002:000093b8       ??_C@_1BI@IEADNOHF@?$AA_?$AAw?$AAc?$AAt?$AAo?$AAm?$AAb?$AA_?$AAs?$AA_?$AAl?$AA?$AA@ 100593b8     LIBCMTD:wctomb.obj
 0002:000093d0       ??_C@_1GE@MINKPNPH@?$AAf?$AA?3?$AA?2?$AAd?$AAd?$AA?2?$AAv?$AAc?$AAt?$AAo?$AAo?$AAl?$AAs?$AA?2?$AAc?$AAr?$AAt?$AA_?$AAb?$AAl?$AAd?$AA?2?$AAs?$AAe?$AAl?$AAf?$AA_?$AAx?$AA8?$AA6?$AA?2?$AAc@ 100593d0     LIBCMTD:lseeki64.obj
 0002:00009434       ??_C@_1BE@KHFBJMNM@?$AA_?$AAl?$AAs?$AAe?$AAe?$AAk?$AAi?$AA6?$AA4?$AA?$AA@ 10059434     LIBCMTD:lseeki64.obj
 0002:00009448       ??_C@_1NC@EINCOKCO@?$AA_?$AAl?$AAo?$AAc?$AA_?$AAu?$AAp?$AAd?$AAa?$AAt?$AAe?$AA?4?$AAG?$AAe?$AAt?$AAL?$AAo?$AAc?$AAa?$AAl?$AAe?$AAT?$AA?$CI?$AA?$CJ?$AA?9?$AA?$DO?$AAl?$AAo?$AAc?$AAi?$AAn?$AAf@ 10059448     LIBCMTD:mbtowc.obj
 0002:00009520       ??_C@_1GA@GFFDGGFH@?$AAf?$AA?3?$AA?2?$AAd?$AAd?$AA?2?$AAv?$AAc?$AAt?$AAo?$AAo?$AAl?$AAs?$AA?2?$AAc?$AAr?$AAt?$AA_?$AAb?$AAl?$AAd?$AA?2?$AAs?$AAe?$AAl?$AAf?$AA_?$AAx?$AA8?$AA6?$AA?2?$AAc@ 10059520     LIBCMTD:mbtowc.obj
 0002:00009580       ??_C@_1GO@DHMODCKM@?$AAf?$AA?3?$AA?2?$AAd?$AAd?$AA?2?$AAv?$AAc?$AAt?$AAo?$AAo?$AAl?$AAs?$AA?2?$AAc?$AAr?$AAt?$AA_?$AAb?$AAl?$AAd?$AA?2?$AAs?$AAe?$AAl?$AAf?$AA_?$AAx?$AA8?$AA6?$AA?2?$AAc@ 10059580     LIBCMTD:wmakepath_s.obj
 0002:000095f0       ??_C@_1BK@KHBCJPCH@?$AA_?$AAw?$AAm?$AAa?$AAk?$AAe?$AAp?$AAa?$AAt?$AAh?$AA_?$AAs?$AA?$AA@ 100595f0     LIBCMTD:wmakepath_s.obj
 0002:0000960c       ??_C@_1CI@MLPLHPBP@?$AA?$CI?$AA?$CI?$AA?$CI?$AA_?$AAP?$AAa?$AAt?$AAh?$AA?$CJ?$AA?$CJ?$AA?$CJ?$AA?5?$AA?$CB?$AA?$DN?$AA?5?$AAN?$AAU?$AAL?$AAL?$AA?$AA@ 1005960c     LIBCMTD:wsplitpath_s.obj
 0002:00009638       ??_C@_1HA@GHKPFCBF@?$AAf?$AA?3?$AA?2?$AAd?$AAd?$AA?2?$AAv?$AAc?$AAt?$AAo?$AAo?$AAl?$AAs?$AA?2?$AAc?$AAr?$AAt?$AA_?$AAb?$AAl?$AAd?$AA?2?$AAs?$AAe?$AAl?$AAf?$AA_?$AAx?$AA8?$AA6?$AA?2?$AAc@ 10059638     LIBCMTD:wsplitpath_s.obj
 0002:000096a8       ??_C@_1BM@OEAFIBCF@?$AA_?$AAw?$AAs?$AAp?$AAl?$AAi?$AAt?$AAp?$AAa?$AAt?$AAh?$AA_?$AAs?$AA?$AA@ 100596a8     LIBCMTD:wsplitpath_s.obj
 0002:000096c4       ??_C@_1DE@MLEJGPLF@?$AA?$CI?$AAL?$AA?$CC?$AAI?$AAn?$AAv?$AAa?$AAl?$AAi?$AAd?$AA?5?$AAp?$AAa?$AAr?$AAa?$AAm?$AAe?$AAt?$AAe?$AAr?$AA?$CC?$AA?0?$AA?5?$AA0?$AA?$CJ?$AA?$AA@ 100596c4     LIBCMTD:wsplitpath_s.obj
 0002:000096f8       ??_C@_1FE@KNPCCODH@?$AA?$CI?$AA?$CC?$AAC?$AAo?$AAr?$AAr?$AAu?$AAp?$AAt?$AAe?$AAd?$AA?5?$AAp?$AAo?$AAi?$AAn?$AAt?$AAe?$AAr?$AA?5?$AAp?$AAa?$AAs?$AAs?$AAe?$AAd?$AA?5?$AAt?$AAo?$AA?5?$AA_?$AAf@ 100596f8     LIBCMTD:a_loc.obj
 0002:00009750       ??_C@_1GA@INJGGEBC@?$AAf?$AA?3?$AA?2?$AAd?$AAd?$AA?2?$AAv?$AAc?$AAt?$AAo?$AAo?$AAl?$AAs?$AA?2?$AAc?$AAr?$AAt?$AA_?$AAb?$AAl?$AAd?$AA?2?$AAs?$AAe?$AAl?$AAf?$AA_?$AAx?$AA8?$AA6?$AA?2?$AAc@ 10059750     LIBCMTD:a_loc.obj
 0002:000097b0       ??_C@_1GA@BJIGKGEA@?$AAf?$AA?3?$AA?2?$AAd?$AAd?$AA?2?$AAv?$AAc?$AAt?$AAo?$AAo?$AAl?$AAs?$AA?2?$AAc?$AAr?$AAt?$AA_?$AAb?$AAl?$AAd?$AA?2?$AAs?$AAe?$AAl?$AAf?$AA_?$AAx?$AA8?$AA6?$AA?2?$AAc@ 100597b0     LIBCMTD:fputwc.obj
 0002:00009810       ??_C@_1O@HJNPHHHB@?$AAf?$AAp?$AAu?$AAt?$AAw?$AAc?$AA?$AA@ 10059810     LIBCMTD:fputwc.obj
 0002:00009820       ??_C@_1GC@DKMGNNCC@?$AAf?$AA?3?$AA?2?$AAd?$AAd?$AA?2?$AAv?$AAc?$AAt?$AAo?$AAo?$AAl?$AAs?$AA?2?$AAc?$AAr?$AAt?$AA_?$AAb?$AAl?$AAd?$AA?2?$AAs?$AAe?$AAl?$AAf?$AA_?$AAx?$AA8?$AA6?$AA?2?$AAc@ 10059820     LIBCMTD:_getbuf.obj
 0002:00009884       ??_C@_0DB@JEHOCBEJ@f?3?2dd?2vctools?2crt_bld?2self_x86?2c@ 10059884     LIBCMTD:_getbuf.obj
 0002:000098b8       ??_C@_1BK@LAOAACLJ@?$AAn?$AAp?$AAt?$AAr?$AA?5?$AA?$CB?$AA?$DN?$AA?5?$AAN?$AAU?$AAL?$AAL?$AA?$AA@ 100598b8     LIBCMTD:wcstol.obj
 0002:000098d8       ??_C@_1GA@CADFOND@?$AAf?$AA?3?$AA?2?$AAd?$AAd?$AA?2?$AAv?$AAc?$AAt?$AAo?$AAo?$AAl?$AAs?$AA?2?$AAc?$AAr?$AAt?$AA_?$AAb?$AAl?$AAd?$AA?2?$AAs?$AAe?$AAl?$AAf?$AA_?$AAx?$AA8?$AA6?$AA?2?$AAc@ 100598d8     LIBCMTD:wcstol.obj
 0002:00009938       ??_C@_1BA@PCFLFGNC@?$AAw?$AAc?$AAs?$AAt?$AAo?$AAx?$AAl?$AA?$AA@ 10059938     LIBCMTD:wcstol.obj
 0002:00009948       ??_C@_1FE@CEHLKAHD@?$AAi?$AAb?$AAa?$AAs?$AAe?$AA?5?$AA?$DN?$AA?$DN?$AA?5?$AA0?$AA?5?$AA?$HM?$AA?$HM?$AA?5?$AA?$CI?$AA2?$AA?5?$AA?$DM?$AA?$DN?$AA?5?$AAi?$AAb?$AAa?$AAs?$AAe?$AA?5?$AA?$CG?$AA?$CG?$AA?5?$AAi?$AAb?$AAa@ 10059948     LIBCMTD:wcstol.obj
 0002:0000999c       ??_C@_0DB@BECNGFDL@f?3?2dd?2vctools?2crt_bld?2self_x86?2c@ 1005999c     LIBCMTD:initmon.obj
 0002:000099d0       ??_C@_1DM@GKAPAMDO@?$AAp?$AAl?$AAo?$AAc?$AAi?$AA?9?$AA?$DO?$AAl?$AAc?$AAo?$AAn?$AAv?$AA_?$AAm?$AAo?$AAn?$AA_?$AAr?$AAe?$AAf?$AAc?$AAo?$AAu?$AAn?$AAt?$AA?5?$AA?$DO?$AA?5?$AA0?$AA?$AA@ 100599d0     LIBCMTD:initmon.obj
 0002:00009a10       ??_C@_1GC@IKADOFBJ@?$AAf?$AA?3?$AA?2?$AAd?$AAd?$AA?2?$AAv?$AAc?$AAt?$AAo?$AAo?$AAl?$AAs?$AA?2?$AAc?$AAr?$AAt?$AA_?$AAb?$AAl?$AAd?$AA?2?$AAs?$AAe?$AAl?$AAf?$AA_?$AAx?$AA8?$AA6?$AA?2?$AAc@ 10059a10     LIBCMTD:initmon.obj
 0002:00009a74       ??_C@_0DB@KKFMDHFI@f?3?2dd?2vctools?2crt_bld?2self_x86?2c@ 10059a74     LIBCMTD:initnum.obj
 0002:00009aa8       ??_C@_1DM@IFKAINNE@?$AAp?$AAl?$AAo?$AAc?$AAi?$AA?9?$AA?$DO?$AAl?$AAc?$AAo?$AAn?$AAv?$AA_?$AAn?$AAu?$AAm?$AA_?$AAr?$AAe?$AAf?$AAc?$AAo?$AAu?$AAn?$AAt?$AA?5?$AA?$DO?$AA?5?$AA0?$AA?$AA@ 10059aa8     LIBCMTD:initnum.obj
 0002:00009ae8       ??_C@_1GC@EDJOCBCL@?$AAf?$AA?3?$AA?2?$AAd?$AAd?$AA?2?$AAv?$AAc?$AAt?$AAo?$AAo?$AAl?$AAs?$AA?2?$AAc?$AAr?$AAt?$AA_?$AAb?$AAl?$AAd?$AA?2?$AAs?$AAe?$AAl?$AAf?$AA_?$AAx?$AA8?$AA6?$AA?2?$AAc@ 10059ae8     LIBCMTD:initnum.obj
 0002:00009b4c       ??_C@_0DC@KICHHNFK@f?3?2dd?2vctools?2crt_bld?2self_x86?2c@ 10059b4c     LIBCMTD:inittime.obj
 0002:00009b80       ??_C@_1EE@FDHCFDHN@?$AAp?$AAl?$AAo?$AAc?$AAi?$AA?9?$AA?$DO?$AAl?$AAc?$AA_?$AAt?$AAi?$AAm?$AAe?$AA_?$AAc?$AAu?$AAr?$AAr?$AA?9?$AA?$DO?$AAr?$AAe?$AAf?$AAc?$AAo?$AAu?$AAn?$AAt?$AA?5?$AA?$DO?$AA?5@ 10059b80     LIBCMTD:inittime.obj
 0002:00009bc8       ??_C@_1GE@GJCMHHMH@?$AAf?$AA?3?$AA?2?$AAd?$AAd?$AA?2?$AAv?$AAc?$AAt?$AAo?$AAo?$AAl?$AAs?$AA?2?$AAc?$AAr?$AAt?$AA_?$AAb?$AAl?$AAd?$AA?2?$AAs?$AAe?$AAl?$AAf?$AA_?$AAx?$AA8?$AA6?$AA?2?$AAc@ 10059bc8     LIBCMTD:inittime.obj
 0002:00009c30       ___lc_category             10059c30     LIBCMTD:wsetloca.obj
 0002:00009c78       ??_C@_1O@GIFLHMA@?$AAL?$AAC?$AA_?$AAA?$AAL?$AAL?$AA?$AA@ 10059c78     LIBCMTD:wsetloca.obj
 0002:00009c88       ??_C@_1BG@PPOMIBNJ@?$AAL?$AAC?$AA_?$AAC?$AAO?$AAL?$AAL?$AAA?$AAT?$AAE?$AA?$AA@ 10059c88     LIBCMTD:wsetloca.obj
 0002:00009ca0       ??_C@_1BC@FFJGAPJM@?$AAL?$AAC?$AA_?$AAC?$AAT?$AAY?$AAP?$AAE?$AA?$AA@ 10059ca0     LIBCMTD:wsetloca.obj
 0002:00009cb4       ??_C@_1BI@PCKFNJFB@?$AAL?$AAC?$AA_?$AAM?$AAO?$AAN?$AAE?$AAT?$AAA?$AAR?$AAY?$AA?$AA@ 10059cb4     LIBCMTD:wsetloca.obj
 0002:00009ccc       ??_C@_1BG@ENIEDKID@?$AAL?$AAC?$AA_?$AAN?$AAU?$AAM?$AAE?$AAR?$AAI?$AAC?$AA?$AA@ 10059ccc     LIBCMTD:wsetloca.obj
 0002:00009ce4       ??_C@_1BA@HAAOMIIG@?$AAL?$AAC?$AA_?$AAT?$AAI?$AAM?$AAE?$AA?$AA@ 10059ce4     LIBCMTD:wsetloca.obj
 0002:00009d78       ??_C@_1GA@LDEGDKD@?$AA?$CI?$AA?$CC?$AAI?$AAn?$AAv?$AAa?$AAl?$AAi?$AAd?$AA?5?$AAp?$AAa?$AAr?$AAa?$AAm?$AAe?$AAt?$AAe?$AAr?$AA?5?$AAf?$AAo?$AAr?$AA?5?$AA_?$AAc?$AAo?$AAn?$AAf?$AAi?$AAg?$AAt@ 10059d78     LIBCMTD:wsetloca.obj
 0002:00009dd8       ??_C@_1GE@GBFCCMHH@?$AAf?$AA?3?$AA?2?$AAd?$AAd?$AA?2?$AAv?$AAc?$AAt?$AAo?$AAo?$AAl?$AAs?$AA?2?$AAc?$AAr?$AAt?$AA_?$AAb?$AAl?$AAd?$AA?2?$AAs?$AAe?$AAl?$AAf?$AA_?$AAx?$AA8?$AA6?$AA?2?$AAc@ 10059dd8     LIBCMTD:wsetloca.obj
 0002:00009e3c       ??_C@_1CI@FGIONOJM@?$AA_?$AAc?$AAo?$AAn?$AAf?$AAi?$AAg?$AAt?$AAh?$AAr?$AAe?$AAa?$AAd?$AAl?$AAo?$AAc?$AAa?$AAl?$AAe?$AA?$AA@ 10059e3c     LIBCMTD:wsetloca.obj
 0002:00009e64       ??_C@_0DC@NCPJHDFJ@f?3?2dd?2vctools?2crt_bld?2self_x86?2c@ 10059e64     LIBCMTD:wsetloca.obj
 0002:00009e98       ??_C@_1FG@OHLFEKMC@?$AAL?$AAC?$AA_?$AAM?$AAI?$AAN?$AA?5?$AA?$DM?$AA?$DN?$AA?5?$AA_?$AAc?$AAa?$AAt?$AAe?$AAg?$AAo?$AAr?$AAy?$AA?5?$AA?$CG?$AA?$CG?$AA?5?$AA_?$AAc?$AAa?$AAt?$AAe?$AAg?$AAo?$AAr?$AAy@ 10059e98     LIBCMTD:wsetloca.obj
 0002:00009ef0       ??_C@_1BI@KJNPAEHL@?$AA_?$AAw?$AAs?$AAe?$AAt?$AAl?$AAo?$AAc?$AAa?$AAl?$AAe?$AA?$AA@ 10059ef0     LIBCMTD:wsetloca.obj
 0002:00009f08       ??_C@_15NBPDDFIP@?$AA?$DN?$AA?$DL?$AA?$AA@ 10059f08     LIBCMTD:wsetloca.obj
 0002:00009f10       ??_C@_13PJJBFPED@?$AA?$DL?$AA?$AA@ 10059f10     LIBCMTD:wsetloca.obj
 0002:00009f14       ??_C@_1CG@DKJCBBPP@?$AA_?$AAw?$AAs?$AAe?$AAt?$AAl?$AAo?$AAc?$AAa?$AAl?$AAe?$AA_?$AAn?$AAo?$AAl?$AAo?$AAc?$AAk?$AA?$AA@ 10059f14     LIBCMTD:wsetloca.obj
 0002:00009f40       ??_C@_1IA@DGCOPCLP@?$AAw?$AAc?$AAs?$AAn?$AAc?$AAp?$AAy?$AA_?$AAs?$AA?$CI?$AAl?$AAc?$AAt?$AAe?$AAm?$AAp?$AA?0?$AA?5?$AA?$CI?$AAs?$AAi?$AAz?$AAe?$AAo?$AAf?$AA?$CI?$AAl?$AAc?$AAt?$AAe?$AAm?$AAp@ 10059f40     LIBCMTD:wsetloca.obj
 0002:00009fc0       ??_C@_1CI@ODOPEMNJ@?$AA_?$AAw?$AAs?$AAe?$AAt?$AAl?$AAo?$AAc?$AAa?$AAl?$AAe?$AA_?$AAs?$AAe?$AAt?$AA_?$AAc?$AAa?$AAt?$AA?$AA@ 10059fc0     LIBCMTD:wsetloca.obj
 0002:00009fe8       ??_C@_1EM@MHOCNIAA@?$AAw?$AAc?$AAs?$AAc?$AAp?$AAy?$AA_?$AAs?$AA?$CI?$AAp?$AAc?$AAh?$AA_?$AAc?$AAa?$AAt?$AA_?$AAl?$AAo?$AAc?$AAa?$AAl?$AAe?$AA?0?$AA?5?$AAc?$AAc?$AAh?$AA?0?$AA?5?$AAl?$AAc@ 10059fe8     LIBCMTD:wsetloca.obj
 0002:0000a034       ??_C@_13NMPKAAJP@?$AA?$DN?$AA?$AA@ 1005a034     LIBCMTD:wsetloca.obj
 0002:0000a038       ??_C@_1CI@LKOPFFBD@?$AA_?$AAw?$AAs?$AAe?$AAt?$AAl?$AAo?$AAc?$AAa?$AAl?$AAe?$AA_?$AAg?$AAe?$AAt?$AA_?$AAa?$AAl?$AAl?$AA?$AA@ 1005a038     LIBCMTD:wsetloca.obj
 0002:0000a060       ??_C@_1DC@HMLJMODP@?$AAw?$AAc?$AAs?$AAc?$AAa?$AAt?$AA_?$AAs?$AA?$CI?$AAp?$AAc?$AAh?$AA?0?$AA?5?$AAc?$AAc?$AAh?$AA?0?$AA?5?$AAL?$AA?$CC?$AA?$DL?$AA?$CC?$AA?$CJ?$AA?$AA@ 1005a060     LIBCMTD:wsetloca.obj
 0002:0000a094       ??_C@_1BM@OIIBLEFG@?$AA_?$AAe?$AAx?$AAp?$AAa?$AAn?$AAd?$AAl?$AAo?$AAc?$AAa?$AAl?$AAe?$AA?$AA@ 1005a094     LIBCMTD:wsetloca.obj
 0002:0000a0b0       ??_C@_1BFG@FHLOBJGM@?$AAw?$AAc?$AAs?$AAn?$AAc?$AAp?$AAy?$AA_?$AAs?$AA?$CI?$AAl?$AAo?$AAc?$AAa?$AAl?$AAe?$AAN?$AAa?$AAm?$AAe?$AAO?$AAu?$AAt?$AAp?$AAu?$AAt?$AA?0?$AA?5?$AAl?$AAo?$AAc?$AAa@ 1005a0b0     LIBCMTD:wsetloca.obj
 0002:0000a208       ??_C@_1EI@OCINLCHN@?$AAw?$AAc?$AAs?$AAc?$AAp?$AAy?$AA_?$AAs?$AA?$CI?$AAo?$AAu?$AAt?$AAp?$AAu?$AAt?$AA?0?$AA?5?$AAs?$AAi?$AAz?$AAe?$AAI?$AAn?$AAC?$AAh?$AAa?$AAr?$AAs?$AA?0?$AA?5?$AAL?$AA?$CC@ 1005a208     LIBCMTD:wsetloca.obj
 0002:0000a250       ??_C@_13FHBKNHDA@?$AAC?$AA?$AA@ 1005a250     LIBCMTD:wsetloca.obj
 0002:0000a258       ??_C@_1MO@NNCNEOAP@?$AAw?$AAc?$AAs?$AAn?$AAc?$AAp?$AAy?$AA_?$AAs?$AA?$CI?$AAl?$AAo?$AAc?$AAa?$AAl?$AAe?$AAN?$AAa?$AAm?$AAe?$AAO?$AAu?$AAt?$AAp?$AAu?$AAt?$AA?0?$AA?5?$AAl?$AAo?$AAc?$AAa@ 1005a258     LIBCMTD:wsetloca.obj
 0002:0000a328       ??_C@_1IG@MKDIEKFD@?$AAw?$AAc?$AAs?$AAn?$AAc?$AAp?$AAy?$AA_?$AAs?$AA?$CI?$AAc?$AAa?$AAc?$AAh?$AAe?$AAo?$AAu?$AAt?$AA?0?$AA?5?$AAc?$AAa?$AAc?$AAh?$AAe?$AAo?$AAu?$AAt?$AAL?$AAe?$AAn?$AA?0@ 1005a328     LIBCMTD:wsetloca.obj
 0002:0000a3b0       ??_C@_1KK@KMIFPBBC@?$AAw?$AAc?$AAs?$AAn?$AAc?$AAp?$AAy?$AA_?$AAs?$AA?$CI?$AAl?$AAo?$AAc?$AAa?$AAl?$AAe?$AAN?$AAa?$AAm?$AAe?$AAO?$AAu?$AAt?$AAp?$AAu?$AAt?$AA?0?$AA?5?$AAl?$AAo?$AAc?$AAa@ 1005a3b0     LIBCMTD:wsetloca.obj
 0002:0000a460       ??_C@_1BEK@OJDMMIMP@?$AAw?$AAc?$AAs?$AAn?$AAc?$AAp?$AAy?$AA_?$AAs?$AA?$CI?$AA_?$AAp?$AAs?$AAe?$AAt?$AAl?$AAo?$AAc?$AA_?$AAd?$AAa?$AAt?$AAa?$AA?9?$AA?$DO?$AA_?$AAc?$AAa?$AAc?$AAh?$AAe?$AAL@ 1005a460     LIBCMTD:wsetloca.obj
 0002:0000a5b0       ??_C@_1BGG@FCLLNAOE@?$AAw?$AAc?$AAs?$AAn?$AAc?$AAp?$AAy?$AA_?$AAs?$AA?$CI?$AA_?$AAp?$AAs?$AAe?$AAt?$AAl?$AAo?$AAc?$AA_?$AAd?$AAa?$AAt?$AAa?$AA?9?$AA?$DO?$AA_?$AAc?$AAa?$AAc?$AAh?$AAe?$AAL@ 1005a5b0     LIBCMTD:wsetloca.obj
 0002:0000a718       ??_C@_1IC@FCCDBGLL@?$AAw?$AAc?$AAs?$AAn?$AAc?$AAp?$AAy?$AA_?$AAs?$AA?$CI?$AAc?$AAa?$AAc?$AAh?$AAe?$AAi?$AAn?$AA?0?$AA?5?$AAc?$AAa?$AAc?$AAh?$AAe?$AAi?$AAn?$AAL?$AAe?$AAn?$AA?0?$AA?5?$AAe@ 1005a718     LIBCMTD:wsetloca.obj
 0002:0000a7a0       ??_C@_1FA@HOOAAHFF@?$AAw?$AAc?$AAs?$AAc?$AAp?$AAy?$AA_?$AAs?$AA?$CI?$AAo?$AAu?$AAt?$AAp?$AAu?$AAt?$AA?0?$AA?5?$AAs?$AAi?$AAz?$AAe?$AAI?$AAn?$AAC?$AAh?$AAa?$AAr?$AAs?$AA?0?$AA?5?$AAc?$AAa@ 1005a7a0     LIBCMTD:wsetloca.obj
 0002:0000a7f0       ??_C@_1BC@LEOKFFML@?$AA_?$AAw?$AAc?$AAs?$AAc?$AAa?$AAt?$AAs?$AA?$AA@ 1005a7f0     LIBCMTD:wsetloca.obj
 0002:0000a808       ??_C@_1BII@IONPPCCF@?$AAw?$AAc?$AAs?$AAc?$AAa?$AAt?$AA_?$AAs?$AA?$CI?$AAo?$AAu?$AAt?$AAs?$AAt?$AAr?$AA?0?$AA?5?$AAn?$AAu?$AAm?$AAb?$AAe?$AAr?$AAO?$AAf?$AAE?$AAl?$AAe?$AAm?$AAe?$AAn?$AAt@ 1005a808     LIBCMTD:wsetloca.obj
 0002:0000a990       ??_C@_1BK@GNCHCGCN@?$AA_?$AA_?$AAl?$AAc?$AA_?$AAw?$AAc?$AAs?$AAt?$AAo?$AAl?$AAc?$AA?$AA@ 1005a990     LIBCMTD:wsetloca.obj
 0002:0000a9b0       ??_C@_1NI@NELJHJBO@?$AAw?$AAc?$AAs?$AAn?$AAc?$AAp?$AAy?$AA_?$AAs?$AA?$CI?$AAn?$AAa?$AAm?$AAe?$AAs?$AA?9?$AA?$DO?$AAs?$AAz?$AAC?$AAo?$AAd?$AAe?$AAP?$AAa?$AAg?$AAe?$AA?0?$AA?5?$AA?$CI?$AAs?$AAi@ 1005a9b0     LIBCMTD:wsetloca.obj
 0002:0000aa88       ??_C@_17MBJJLFDM@?$AA_?$AA?4?$AA?0?$AA?$AA@ 1005aa88     LIBCMTD:wsetloca.obj
 0002:0000aa90       ??_C@_1MO@PBGOIBFL@?$AAw?$AAc?$AAs?$AAn?$AAc?$AAp?$AAy?$AA_?$AAs?$AA?$CI?$AAn?$AAa?$AAm?$AAe?$AAs?$AA?9?$AA?$DO?$AAs?$AAz?$AAL?$AAa?$AAn?$AAg?$AAu?$AAa?$AAg?$AAe?$AA?0?$AA?5?$AA?$CI?$AAs?$AAi@ 1005aa90     LIBCMTD:wsetloca.obj
 0002:0000ab60       ??_C@_1MI@CLMFNAAJ@?$AAw?$AAc?$AAs?$AAn?$AAc?$AAp?$AAy?$AA_?$AAs?$AA?$CI?$AAn?$AAa?$AAm?$AAe?$AAs?$AA?9?$AA?$DO?$AAs?$AAz?$AAC?$AAo?$AAu?$AAn?$AAt?$AAr?$AAy?$AA?0?$AA?5?$AA?$CI?$AAs?$AAi?$AAz@ 1005ab60     LIBCMTD:wsetloca.obj
 0002:0000ac28       ??_C@_1MO@NBFBMKCB@?$AAw?$AAc?$AAs?$AAn?$AAc?$AAp?$AAy?$AA_?$AAs?$AA?$CI?$AAn?$AAa?$AAm?$AAe?$AAs?$AA?9?$AA?$DO?$AAs?$AAz?$AAC?$AAo?$AAd?$AAe?$AAP?$AAa?$AAg?$AAe?$AA?0?$AA?5?$AA?$CI?$AAs?$AAi@ 1005ac28     LIBCMTD:wsetloca.obj
 0002:0000acf8       ??_C@_1BK@HEBMGPEK@?$AA_?$AA_?$AAl?$AAc?$AA_?$AAl?$AAc?$AAt?$AAo?$AAw?$AAc?$AAs?$AA?$AA@ 1005acf8     LIBCMTD:wsetloca.obj
 0002:0000ad18       ??_C@_1GM@FOFMGOEK@?$AAw?$AAc?$AAs?$AAc?$AAp?$AAy?$AA_?$AAs?$AA?$CI?$AAl?$AAo?$AAc?$AAa?$AAl?$AAe?$AA?0?$AA?5?$AAn?$AAu?$AAm?$AAb?$AAe?$AAr?$AAO?$AAf?$AAE?$AAl?$AAe?$AAm?$AAe?$AAn?$AAt@ 1005ad18     LIBCMTD:wsetloca.obj
 0002:0000ad84       ??_C@_13ENNFDPBH@?$AA_?$AA?$AA@ 1005ad84     LIBCMTD:wsetloca.obj
 0002:0000ad88       ??_C@_13JOFGPIOO@?$AA?4?$AA?$AA@ 1005ad88     LIBCMTD:wsetloca.obj
 0002:0000ad8c       ??_C@_1CG@HCGEAFEA@?$AA_?$AA_?$AAc?$AAo?$AAp?$AAy?$AA_?$AAl?$AAo?$AAc?$AAa?$AAl?$AAe?$AA_?$AAn?$AAa?$AAm?$AAe?$AA?$AA@ 1005ad8c     LIBCMTD:wsetloca.obj
 0002:0000adb8       ??_C@_1GI@HBNMCKGD@?$AAw?$AAc?$AAs?$AAn?$AAc?$AAp?$AAy?$AA_?$AAs?$AA?$CI?$AAl?$AAo?$AAc?$AAa?$AAl?$AAe?$AAN?$AAa?$AAm?$AAe?$AAC?$AAo?$AAp?$AAy?$AA?0?$AA?5?$AAc?$AAc?$AAh?$AA?$CL?$AA1?$AA?0@ 1005adb8     LIBCMTD:wsetloca.obj
 0002:0000ae20       ??_C@_1CA@MBDBOHIB@?$AA_?$AAL?$AAo?$AAc?$AAa?$AAl?$AAe?$AA?5?$AA?$CB?$AA?$DN?$AA?5?$AAN?$AAU?$AAL?$AAL?$AA?$AA@ 1005ae20     LIBCMTD:strgtold.obj
 0002:0000ae40       ??_C@_1IG@IGKPPFIM@?$AAf?$AA?3?$AA?2?$AAd?$AAd?$AA?2?$AAv?$AAc?$AAt?$AAo?$AAo?$AAl?$AAs?$AA?2?$AAc?$AAr?$AAt?$AA_?$AAb?$AAl?$AAd?$AA?2?$AAs?$AAe?$AAl?$AAf?$AA_?$AAx?$AA8?$AA6?$AA?2?$AAc@ 1005ae40     LIBCMTD:strgtold.obj
 0002:0000aec8       ??_C@_1BO@IHLJHOPI@?$AA_?$AA_?$AAs?$AAt?$AAr?$AAg?$AAt?$AAo?$AAl?$AAd?$AA1?$AA2?$AA_?$AAl?$AA?$AA@ 1005aec8     LIBCMTD:strgtold.obj
 0002:0000aee8       ??_C@_1HG@HFJMHCFK@?$AAf?$AA?3?$AA?2?$AAd?$AAd?$AA?2?$AAv?$AAc?$AAt?$AAo?$AAo?$AAl?$AAs?$AA?2?$AAc?$AAr?$AAt?$AA_?$AAb?$AAl?$AAd?$AA?2?$AAs?$AAe?$AAl?$AAf?$AA_?$AAx?$AA8?$AA6?$AA?2?$AAc@ 1005aee8     LIBCMTD:x10fout.obj
 0002:0000af60       ??_C@_1BI@ELMAAFLN@?$AA$?$AAI?$AA1?$AA0?$AA_?$AAO?$AAU?$AAT?$AAP?$AAU?$AAT?$AA?$AA@ 1005af60     LIBCMTD:x10fout.obj
 0002:0000af78       ??_C@_1EG@CDDBFNOB@?$AAs?$AAt?$AAr?$AAc?$AAp?$AAy?$AA_?$AAs?$AA?$CI?$AAf?$AAo?$AAs?$AA?9?$AA?$DO?$AAm?$AAa?$AAn?$AA?0?$AA?5?$AA2?$AA1?$AA?$CL?$AA1?$AA?0?$AA?5?$AA?$CC?$AA1?$AA?$CD?$AAS?$AAN?$AAA?$AAN@ 1005af78     LIBCMTD:x10fout.obj
 0002:0000afc0       ??_C@_06PGGFOGJG@1?$CDSNAN?$AA@ 1005afc0     LIBCMTD:x10fout.obj
 0002:0000afc8       ??_C@_1EE@MADEBIHF@?$AAs?$AAt?$AAr?$AAc?$AAp?$AAy?$AA_?$AAs?$AA?$CI?$AAf?$AAo?$AAs?$AA?9?$AA?$DO?$AAm?$AAa?$AAn?$AA?0?$AA?5?$AA2?$AA1?$AA?$CL?$AA1?$AA?0?$AA?5?$AA?$CC?$AA1?$AA?$CD?$AAI?$AAN?$AAD?$AA?$CC@ 1005afc8     LIBCMTD:x10fout.obj
 0002:0000b00c       ??_C@_05PHHOCPM@1?$CDIND?$AA@ 1005b00c     LIBCMTD:x10fout.obj
 0002:0000b018       ??_C@_1EE@ICBBBPAI@?$AAs?$AAt?$AAr?$AAc?$AAp?$AAy?$AA_?$AAs?$AA?$CI?$AAf?$AAo?$AAs?$AA?9?$AA?$DO?$AAm?$AAa?$AAn?$AA?0?$AA?5?$AA2?$AA1?$AA?$CL?$AA1?$AA?0?$AA?5?$AA?$CC?$AA1?$AA?$CD?$AAI?$AAN?$AAF?$AA?$CC@ 1005b018     LIBCMTD:x10fout.obj
 0002:0000b05c       ??_C@_05DNEBIAHO@1?$CDINF?$AA@ 1005b05c     LIBCMTD:x10fout.obj
 0002:0000b068       ??_C@_1EG@MCFPJJEM@?$AAs?$AAt?$AAr?$AAc?$AAp?$AAy?$AA_?$AAs?$AA?$CI?$AAf?$AAo?$AAs?$AA?9?$AA?$DO?$AAm?$AAa?$AAn?$AA?0?$AA?5?$AA2?$AA1?$AA?$CL?$AA1?$AA?0?$AA?5?$AA?$CC?$AA1?$AA?$CD?$AAQ?$AAN?$AAA?$AAN@ 1005b068     LIBCMTD:x10fout.obj
 0002:0000b0b0       ??_C@_06IMKFLFPG@1?$CDQNAN?$AA@ 1005b0b0     LIBCMTD:x10fout.obj
 0002:0000b0b8       ___newctype                1005b0b8     LIBCMTD:ctype.obj
 0002:0000b3b8       __wctype                   1005b3b8     LIBCMTD:ctype.obj
 0002:0000b5c0       ___newclmap                1005b5c0     LIBCMTD:ctype.obj
 0002:0000b740       ___newcumap                1005b740     LIBCMTD:ctype.obj
 0002:0000b8c0       ?commonFlags@?1??_control87@@9@9 1005b8c0     LIBCMTD:ieee87.obj
 0002:0000b8c8       ??_C@_1HO@BFDKGHOI@?$AAf?$AA?3?$AA?2?$AAd?$AAd?$AA?2?$AAv?$AAc?$AAt?$AAo?$AAo?$AAl?$AAs?$AA?2?$AAc?$AAr?$AAt?$AA_?$AAb?$AAl?$AAd?$AA?2?$AAs?$AAe?$AAl?$AAf?$AA_?$AAx?$AA8?$AA6?$AA?2?$AAc@ 1005b8c8     LIBCMTD:ieee87.obj
 0002:0000b948       ??_C@_1BO@OFDNCLL@?$AA_?$AAs?$AAe?$AAt?$AA_?$AAc?$AAo?$AAn?$AAt?$AAr?$AAo?$AAl?$AAf?$AAp?$AA?$AA@ 1005b948     LIBCMTD:ieee87.obj
 0002:0000b968       ??_C@_1GO@OKJGOMCB@?$AA_?$AAc?$AAo?$AAn?$AAt?$AAr?$AAo?$AAl?$AAf?$AAp?$AA_?$AAs?$AA?$CI?$AA?$CI?$AA?$CI?$AAv?$AAo?$AAi?$AAd?$AA?5?$AA?$CK?$AA?$CJ?$AA0?$AA?$CJ?$AA?0?$AA?5?$AAn?$AAe?$AAw?$AAc?$AAt?$AAr@ 1005b968     LIBCMTD:ieee87.obj
 0002:0000b9d8       ??_C@_1FO@NNGNFGFH@?$AAf?$AA?3?$AA?2?$AAd?$AAd?$AA?2?$AAv?$AAc?$AAt?$AAo?$AAo?$AAl?$AAs?$AA?2?$AAc?$AAr?$AAt?$AA_?$AAb?$AAl?$AAd?$AA?2?$AAs?$AAe?$AAl?$AAf?$AA_?$AAx?$AA8?$AA6?$AA?2?$AAc@ 1005b9d8     LIBCMTD:close.obj
 0002:0000ba38       ??_C@_1O@EDEJGJBM@?$AA_?$AAc?$AAl?$AAo?$AAs?$AAe?$AA?$AA@ 1005ba38     LIBCMTD:close.obj
 0002:0000ba48       ??_C@_1GE@DPADKNCG@?$AAf?$AA?3?$AA?2?$AAd?$AAd?$AA?2?$AAv?$AAc?$AAt?$AAo?$AAo?$AAl?$AAs?$AA?2?$AAc?$AAr?$AAt?$AA_?$AAb?$AAl?$AAd?$AA?2?$AAs?$AAe?$AAl?$AAf?$AA_?$AAx?$AA8?$AA6?$AA?2?$AAc@ 1005ba48     LIBCMTD:vsprintf.obj
 0002:0000baac       ??_C@_1BI@IGILPKD@?$AA_?$AAv?$AAs?$AAp?$AAr?$AAi?$AAn?$AAt?$AAf?$AA_?$AAl?$AA?$AA@ 1005baac     LIBCMTD:vsprintf.obj
 0002:0000bac4       ??_C@_1CE@HMKDJHB@?$AA_?$AAv?$AAs?$AAc?$AAp?$AAr?$AAi?$AAn?$AAt?$AAf?$AA_?$AAh?$AAe?$AAl?$AAp?$AAe?$AAr?$AA?$AA@ 1005bac4     LIBCMTD:vsprintf.obj
 0002:0000bae8       ??_C@_1CE@PCFPEIFI@?$AA_?$AAv?$AAs?$AAn?$AAp?$AAr?$AAi?$AAn?$AAt?$AAf?$AA_?$AAh?$AAe?$AAl?$AAp?$AAe?$AAr?$AA?$AA@ 1005bae8     LIBCMTD:vsnprnc.obj
 0002:0000bb0c       ??_C@_1BM@BLJALHEF@?$AA_?$AAv?$AAs?$AAp?$AAr?$AAi?$AAn?$AAt?$AAf?$AA_?$AAs?$AA_?$AAl?$AA?$AA@ 1005bb0c     LIBCMTD:vsnprnc.obj
 0002:0000bb28       ??_C@_1EE@OKCKIGFK@?$AAs?$AAt?$AAr?$AAi?$AAn?$AAg?$AA?5?$AA?$CB?$AA?$DN?$AA?5?$AAN?$AAU?$AAL?$AAL?$AA?5?$AA?$CG?$AA?$CG?$AA?5?$AAs?$AAi?$AAz?$AAe?$AAI?$AAn?$AAB?$AAy?$AAt?$AAe?$AAs?$AA?5?$AA?$DO?$AA?5@ 1005bb28     LIBCMTD:vsnprnc.obj
 0002:0000bb6c       ??_C@_1BO@MMPELNIM@?$AA_?$AAv?$AAs?$AAn?$AAp?$AAr?$AAi?$AAn?$AAt?$AAf?$AA_?$AAs?$AA_?$AAl?$AA?$AA@ 1005bb6c     LIBCMTD:vsnprnc.obj
 0002:0000bb90       ??_C@_1GA@IPHKKOEI@?$AAf?$AA?3?$AA?2?$AAd?$AAd?$AA?2?$AAv?$AAc?$AAt?$AAo?$AAo?$AAl?$AAs?$AA?2?$AAc?$AAr?$AAt?$AA_?$AAb?$AAl?$AAd?$AA?2?$AAs?$AAe?$AAl?$AAf?$AA_?$AAx?$AA8?$AA6?$AA?2?$AAc@ 1005bb90     LIBCMTD:strtol.obj
 0002:0000bbf0       ??_C@_1BA@LOLAMAJG@?$AAs?$AAt?$AAr?$AAt?$AAo?$AAx?$AAl?$AA?$AA@ 1005bbf0     LIBCMTD:strtol.obj
 0002:0000bc00       ??_C@_1BK@EPLNBKAK@?$AA_?$AAv?$AAs?$AAw?$AAp?$AAr?$AAi?$AAn?$AAt?$AAf?$AA_?$AAl?$AA?$AA@ 1005bc00     LIBCMTD:vswprint.obj
 0002:0000bc1c       ??_C@_1CG@IMMIEPNA@?$AA_?$AAv?$AAs?$AAc?$AAw?$AAp?$AAr?$AAi?$AAn?$AAt?$AAf?$AA_?$AAh?$AAe?$AAl?$AAp?$AAe?$AAr?$AA?$AA@ 1005bc1c     LIBCMTD:vswprint.obj
 0002:0000bc44       ??_C@_1BC@HGPNAKGC@?$AAs?$AAt?$AAr?$AAc?$AAa?$AAt?$AA_?$AAs?$AA?$AA@ 1005bc44     LIBCMTD:strcat_s.obj
 0002:0000bc58       ??_C@_1O@GIMBNLEI@?$AAx?$AAt?$AAo?$AAa?$AA_?$AAs?$AA?$AA@ 1005bc58     LIBCMTD:xtoas.obj
 0002:0000bc68       ??_C@_1BC@MJJNBNFN@?$AAx?$AA6?$AA4?$AAt?$AAo?$AAa?$AA_?$AAs?$AA?$AA@ 1005bc68     LIBCMTD:xtoas.obj
 0002:0000bc7c       ??_C@_1BE@EEKACIGI@?$AAs?$AA?5?$AA?$CB?$AA?$DN?$AA?5?$AAN?$AAU?$AAL?$AAL?$AA?$AA@ 1005bc7c     LIBCMTD:mbstowcs.obj
 0002:0000bc90       ??_C@_1GE@LCCDHBMH@?$AAf?$AA?3?$AA?2?$AAd?$AAd?$AA?2?$AAv?$AAc?$AAt?$AAo?$AAo?$AAl?$AAs?$AA?2?$AAc?$AAr?$AAt?$AA_?$AAb?$AAl?$AAd?$AA?2?$AAs?$AAe?$AAl?$AAf?$AA_?$AAx?$AA8?$AA6?$AA?2?$AAc@ 1005bc90     LIBCMTD:mbstowcs.obj
 0002:0000bcf4       ??_C@_1CG@JEHFHLNG@?$AA_?$AAm?$AAb?$AAs?$AAt?$AAo?$AAw?$AAc?$AAs?$AA_?$AAl?$AA_?$AAh?$AAe?$AAl?$AAp?$AAe?$AAr?$AA?$AA@ 1005bcf4     LIBCMTD:mbstowcs.obj
 0002:0000bd20       ??_C@_1JA@JKDFMOPO@?$AA?$CI?$AAp?$AAw?$AAc?$AAs?$AA?5?$AA?$DN?$AA?$DN?$AA?5?$AAN?$AAU?$AAL?$AAL?$AA?5?$AA?$CG?$AA?$CG?$AA?5?$AAs?$AAi?$AAz?$AAe?$AAI?$AAn?$AAW?$AAo?$AAr?$AAd?$AAs?$AA?5?$AA?$DN?$AA?$DN?$AA?5@ 1005bd20     LIBCMTD:mbstowcs.obj
 0002:0000bdb0       ??_C@_1BM@PHENIGHD@?$AA_?$AAm?$AAb?$AAs?$AAt?$AAo?$AAw?$AAc?$AAs?$AA_?$AAs?$AA_?$AAl?$AA?$AA@ 1005bdb0     LIBCMTD:mbstowcs.obj
 0002:0000bdcc       ??_C@_1CM@LLECFMFH@?$AAb?$AAu?$AAf?$AAf?$AAe?$AAr?$AAS?$AAi?$AAz?$AAe?$AA?5?$AA?$DM?$AA?$DN?$AA?5?$AAI?$AAN?$AAT?$AA_?$AAM?$AAA?$AAX?$AA?$AA@ 1005bdcc     LIBCMTD:mbstowcs.obj
 0002:0000bdf8       ??_C@_1CO@JNPEPJAL@?$AAr?$AAe?$AAt?$AAs?$AAi?$AAz?$AAe?$AA?5?$AA?$DM?$AA?$DN?$AA?5?$AAs?$AAi?$AAz?$AAe?$AAI?$AAn?$AAW?$AAo?$AAr?$AAd?$AAs?$AA?$AA@ 1005bdf8     LIBCMTD:mbstowcs.obj
 0002:0000be28       ??_C@_1BK@OIBENBPM@?$AAp?$AAw?$AAc?$AAs?$AA?5?$AA?$CB?$AA?$DN?$AA?5?$AAN?$AAU?$AAL?$AAL?$AA?$AA@ 1005be28     LIBCMTD:wcstombs.obj
 0002:0000be48       ??_C@_1GE@OAENIBOD@?$AAf?$AA?3?$AA?2?$AAd?$AAd?$AA?2?$AAv?$AAc?$AAt?$AAo?$AAo?$AAl?$AAs?$AA?2?$AAc?$AAr?$AAt?$AA_?$AAb?$AAl?$AAd?$AA?2?$AAs?$AAe?$AAl?$AAf?$AA_?$AAx?$AA8?$AA6?$AA?2?$AAc@ 1005be48     LIBCMTD:wcstombs.obj
 0002:0000beac       ??_C@_1CG@LLJCAOHF@?$AA_?$AAw?$AAc?$AAs?$AAt?$AAo?$AAm?$AAb?$AAs?$AA_?$AAl?$AA_?$AAh?$AAe?$AAl?$AAp?$AAe?$AAr?$AA?$AA@ 1005beac     LIBCMTD:wcstombs.obj
 0002:0000bed8       ??_C@_1IM@MFGKHGBP@?$AA?$CI?$AAd?$AAs?$AAt?$AA?5?$AA?$CB?$AA?$DN?$AA?5?$AAN?$AAU?$AAL?$AAL?$AA?5?$AA?$CG?$AA?$CG?$AA?5?$AAs?$AAi?$AAz?$AAe?$AAI?$AAn?$AAB?$AAy?$AAt?$AAe?$AAs?$AA?5?$AA?$DO?$AA?5?$AA0?$AA?$CJ@ 1005bed8     LIBCMTD:wcstombs.obj
 0002:0000bf64       ??_C@_1BM@BDMCLLDL@?$AA_?$AAw?$AAc?$AAs?$AAt?$AAo?$AAm?$AAb?$AAs?$AA_?$AAs?$AA_?$AAl?$AA?$AA@ 1005bf64     LIBCMTD:wcstombs.obj
 0002:0000bf80       ??_C@_1CM@KEOGBFLI@?$AAs?$AAi?$AAz?$AAe?$AAI?$AAn?$AAB?$AAy?$AAt?$AAe?$AAs?$AA?5?$AA?$DO?$AA?5?$AAr?$AAe?$AAt?$AAs?$AAi?$AAz?$AAe?$AA?$AA@ 1005bf80     LIBCMTD:wcstombs.obj
 0002:0000bfac       ??_C@_0DC@EHLBFILA@f?3?2dd?2vctools?2crt_bld?2self_x86?2c@ 1005bfac     LIBCMTD:initctyp.obj
 0002:0000bfe0       ??_C@_1GE@OCPKBDKE@?$AAf?$AA?3?$AA?2?$AAd?$AAd?$AA?2?$AAv?$AAc?$AAt?$AAo?$AAo?$AAl?$AAs?$AA?2?$AAc?$AAr?$AAt?$AA_?$AAb?$AAl?$AAd?$AA?2?$AAs?$AAe?$AAl?$AAf?$AA_?$AAx?$AA8?$AA6?$AA?2?$AAc@ 1005bfe0     LIBCMTD:initctyp.obj
 0002:0000c044       ??_C@_1DG@NMBGBDM@?$AAp?$AAl?$AAo?$AAc?$AAi?$AA?9?$AA?$DO?$AAc?$AAt?$AAy?$AAp?$AAe?$AA1?$AA_?$AAr?$AAe?$AAf?$AAc?$AAo?$AAu?$AAn?$AAt?$AA?5?$AA?$DO?$AA?5?$AA0?$AA?$AA@ 1005c044     LIBCMTD:initctyp.obj
 0002:0000c07c       ??_C@_1BA@BALFACEM@?$AAC?$AAO?$AAN?$AAO?$AAU?$AAT?$AA$?$AA?$AA@ 1005c07c     LIBCMTD:initcon.obj
 0002:0000c08c       __pDestructExceptionObject 1005c08c     LIBCMTD:frame.obj
 0002:0000c090       ?value@?$_Sizeof@U_Nil@std@@U12@U12@U12@U12@U12@U12@U12@@std@@2IB 1005c090     LIBCMTD:frame.obj
 0002:0000c094       ?value@?$integral_constant@_N$0A@@std@@2_NB 1005c094     LIBCMTD:frame.obj
 0002:0000c095       ?value@?$integral_constant@_N$00@std@@2_NB 1005c095     LIBCMTD:frame.obj
 0002:0000c09c       ??_7bad_exception@std@@6B@ 1005c09c     LIBCMTD:frame.obj
 0002:0000c0a4       ??_C@_0O@DPKOEFFH@bad?5exception?$AA@ 1005c0a4     LIBCMTD:frame.obj
 0002:0000c0b4       ??_C@_1BK@LIMINNMN@?$AAg?$AAe?$AAr?$AAm?$AAa?$AAn?$AA?9?$AAs?$AAw?$AAi?$AAs?$AAs?$AA?$AA@ 1005c0b4     LIBCMTD:getqloc.obj
 0002:0000c0d0       ??_C@_1BM@LGMDBEPD@?$AAi?$AAr?$AAi?$AAs?$AAh?$AA?9?$AAe?$AAn?$AAg?$AAl?$AAi?$AAs?$AAh?$AA?$AA@ 1005c0d0     LIBCMTD:getqloc.obj
 0002:0000c0ec       ??_C@_1BM@NNCFBAEE@?$AAi?$AAt?$AAa?$AAl?$AAi?$AAa?$AAn?$AA?9?$AAs?$AAw?$AAi?$AAs?$AAs?$AA?$AA@ 1005c0ec     LIBCMTD:getqloc.obj
 0002:0000c108       ??_C@_1BE@FEDJNPIB@?$AAn?$AAo?$AAr?$AAw?$AAe?$AAg?$AAi?$AAa?$AAn?$AA?$AA@ 1005c108     LIBCMTD:getqloc.obj
 0002:0000c11c       ??_C@_1CC@CILKDEIE@?$AAn?$AAo?$AAr?$AAw?$AAe?$AAg?$AAi?$AAa?$AAn?$AA?9?$AAb?$AAo?$AAk?$AAm?$AAa?$AAl?$AA?$AA@ 1005c11c     LIBCMTD:getqloc.obj
 0002:0000c140       ??_C@_1CE@DHMMHEPL@?$AAn?$AAo?$AAr?$AAw?$AAe?$AAg?$AAi?$AAa?$AAn?$AA?9?$AAn?$AAy?$AAn?$AAo?$AAr?$AAs?$AAk?$AA?$AA@ 1005c140     LIBCMTD:getqloc.obj
 0002:0000c164       ??_C@_1CK@OPNMHECD@?$AAp?$AAo?$AAr?$AAt?$AAu?$AAg?$AAu?$AAe?$AAs?$AAe?$AA?9?$AAb?$AAr?$AAa?$AAz?$AAi?$AAl?$AAi?$AAa?$AAn?$AA?$AA@ 1005c164     LIBCMTD:getqloc.obj
 0002:0000c190       ??_C@_1CE@KEEHCDB@?$AAs?$AAp?$AAa?$AAn?$AAi?$AAs?$AAh?$AA?9?$AAa?$AAr?$AAg?$AAe?$AAn?$AAt?$AAi?$AAn?$AAa?$AA?$AA@ 1005c190     LIBCMTD:getqloc.obj
 0002:0000c1b4       ??_C@_1CA@GIAOLHJD@?$AAs?$AAp?$AAa?$AAn?$AAi?$AAs?$AAh?$AA?9?$AAb?$AAo?$AAl?$AAi?$AAv?$AAi?$AAa?$AA?$AA@ 1005c1b4     LIBCMTD:getqloc.obj
 0002:0000c1d4       ??_C@_1BM@OJNDFNPD@?$AAs?$AAp?$AAa?$AAn?$AAi?$AAs?$AAh?$AA?9?$AAc?$AAh?$AAi?$AAl?$AAe?$AA?$AA@ 1005c1d4     LIBCMTD:getqloc.obj
 0002:0000c1f0       ??_C@_1CC@OCOLPALL@?$AAs?$AAp?$AAa?$AAn?$AAi?$AAs?$AAh?$AA?9?$AAc?$AAo?$AAl?$AAo?$AAm?$AAb?$AAi?$AAa?$AA?$AA@ 1005c1f0     LIBCMTD:getqloc.obj
 0002:0000c214       ??_C@_1CG@BPOFMKBB@?$AAs?$AAp?$AAa?$AAn?$AAi?$AAs?$AAh?$AA?9?$AAc?$AAo?$AAs?$AAt?$AAa?$AA?5?$AAr?$AAi?$AAc?$AAa?$AA?$AA@ 1005c214     LIBCMTD:getqloc.obj
 0002:0000c23c       ??_C@_1DG@IGOBAPBB@?$AAs?$AAp?$AAa?$AAn?$AAi?$AAs?$AAh?$AA?9?$AAd?$AAo?$AAm?$AAi?$AAn?$AAi?$AAc?$AAa?$AAn?$AA?5?$AAr?$AAe?$AAp?$AAu?$AAb?$AAl?$AAi?$AAc?$AA?$AA@ 1005c23c     LIBCMTD:getqloc.obj
 0002:0000c274       ??_C@_1CA@JHAPGEGI@?$AAs?$AAp?$AAa?$AAn?$AAi?$AAs?$AAh?$AA?9?$AAe?$AAc?$AAu?$AAa?$AAd?$AAo?$AAr?$AA?$AA@ 1005c274     LIBCMTD:getqloc.obj
 0002:0000c294       ??_C@_1CI@LAPALJPP@?$AAs?$AAp?$AAa?$AAn?$AAi?$AAs?$AAh?$AA?9?$AAe?$AAl?$AA?5?$AAs?$AAa?$AAl?$AAv?$AAa?$AAd?$AAo?$AAr?$AA?$AA@ 1005c294     LIBCMTD:getqloc.obj
 0002:0000c2bc       ??_C@_1CE@PDGBOFOM@?$AAs?$AAp?$AAa?$AAn?$AAi?$AAs?$AAh?$AA?9?$AAg?$AAu?$AAa?$AAt?$AAe?$AAm?$AAa?$AAl?$AAa?$AA?$AA@ 1005c2bc     LIBCMTD:getqloc.obj
 0002:0000c2e0       ??_C@_1CC@NBEBAODI@?$AAs?$AAp?$AAa?$AAn?$AAi?$AAs?$AAh?$AA?9?$AAh?$AAo?$AAn?$AAd?$AAu?$AAr?$AAa?$AAs?$AA?$AA@ 1005c2e0     LIBCMTD:getqloc.obj
 0002:0000c304       ??_C@_1CA@LLKGHBMF@?$AAs?$AAp?$AAa?$AAn?$AAi?$AAs?$AAh?$AA?9?$AAm?$AAe?$AAx?$AAi?$AAc?$AAa?$AAn?$AA?$AA@ 1005c304     LIBCMTD:getqloc.obj
 0002:0000c324       ??_C@_1BO@LKNDOIGD@?$AAs?$AAp?$AAa?$AAn?$AAi?$AAs?$AAh?$AA?9?$AAm?$AAo?$AAd?$AAe?$AAr?$AAn?$AA?$AA@ 1005c324     LIBCMTD:getqloc.obj
 0002:0000c344       ??_C@_1CE@NMDMOEEB@?$AAs?$AAp?$AAa?$AAn?$AAi?$AAs?$AAh?$AA?9?$AAn?$AAi?$AAc?$AAa?$AAr?$AAa?$AAg?$AAu?$AAa?$AA?$AA@ 1005c344     LIBCMTD:getqloc.obj
 0002:0000c368       ??_C@_1BO@LLCBEJGB@?$AAs?$AAp?$AAa?$AAn?$AAi?$AAs?$AAh?$AA?9?$AAp?$AAa?$AAn?$AAa?$AAm?$AAa?$AA?$AA@ 1005c368     LIBCMTD:getqloc.obj
 0002:0000c388       ??_C@_1CC@FKPGGIHO@?$AAs?$AAp?$AAa?$AAn?$AAi?$AAs?$AAh?$AA?9?$AAp?$AAa?$AAr?$AAa?$AAg?$AAu?$AAa?$AAy?$AA?$AA@ 1005c388     LIBCMTD:getqloc.obj
 0002:0000c3ac       ??_C@_1BK@CDEIHOOP@?$AAs?$AAp?$AAa?$AAn?$AAi?$AAs?$AAh?$AA?9?$AAp?$AAe?$AAr?$AAu?$AA?$AA@ 1005c3ac     LIBCMTD:getqloc.obj
 0002:0000c3c8       ??_C@_1CI@GAHAKKGP@?$AAs?$AAp?$AAa?$AAn?$AAi?$AAs?$AAh?$AA?9?$AAp?$AAu?$AAe?$AAr?$AAt?$AAo?$AA?5?$AAr?$AAi?$AAc?$AAo?$AA?$AA@ 1005c3c8     LIBCMTD:getqloc.obj
 0002:0000c3f0       ??_C@_1CA@NKJBCAGP@?$AAs?$AAp?$AAa?$AAn?$AAi?$AAs?$AAh?$AA?9?$AAu?$AAr?$AAu?$AAg?$AAu?$AAa?$AAy?$AA?$AA@ 1005c3f0     LIBCMTD:getqloc.obj
 0002:0000c410       ??_C@_1CE@ODILCONM@?$AAs?$AAp?$AAa?$AAn?$AAi?$AAs?$AAh?$AA?9?$AAv?$AAe?$AAn?$AAe?$AAz?$AAu?$AAe?$AAl?$AAa?$AA?$AA@ 1005c410     LIBCMTD:getqloc.obj
 0002:0000c434       ??_C@_1CA@OBNMCGFO@?$AAs?$AAw?$AAe?$AAd?$AAi?$AAs?$AAh?$AA?9?$AAf?$AAi?$AAn?$AAl?$AAa?$AAn?$AAd?$AA?$AA@ 1005c434     LIBCMTD:getqloc.obj
 0002:0000c454       ??_C@_1M@PIPDDPPI@?$AAs?$AAw?$AAi?$AAs?$AAs?$AA?$AA@ 1005c454     LIBCMTD:getqloc.obj
 0002:0000c460       ??_C@_15PJPFLCCM@?$AAu?$AAk?$AA?$AA@ 1005c460     LIBCMTD:getqloc.obj
 0002:0000c468       ??_C@_15GMFIMNFM@?$AAu?$AAs?$AA?$AA@ 1005c468     LIBCMTD:getqloc.obj
 0002:0000c470       ??_C@_17HAEBFAGL@?$AAu?$AAs?$AAa?$AA?$AA@ 1005c470     LIBCMTD:getqloc.obj
 0002:0000c478       ___rg_country              1005c478     LIBCMTD:getqloc.obj
 0002:0000c58c       ??_C@_1BA@DPFJEPHB@?$AAa?$AAm?$AAe?$AAr?$AAi?$AAc?$AAa?$AA?$AA@ 1005c58c     LIBCMTD:getqloc.obj
 0002:0000c59c       ??_C@_1BA@ELOGGFK@?$AAb?$AAr?$AAi?$AAt?$AAa?$AAi?$AAn?$AA?$AA@ 1005c59c     LIBCMTD:getqloc.obj
 0002:0000c5ac       ??_C@_1M@GHBGIGDA@?$AAc?$AAh?$AAi?$AAn?$AAa?$AA?$AA@ 1005c5ac     LIBCMTD:getqloc.obj
 0002:0000c5b8       ??_C@_1M@NCHEJOPO@?$AAc?$AAz?$AAe?$AAc?$AAh?$AA?$AA@ 1005c5b8     LIBCMTD:getqloc.obj
 0002:0000c5c4       ??_C@_1BA@BKPAPBLA@?$AAe?$AAn?$AAg?$AAl?$AAa?$AAn?$AAd?$AA?$AA@ 1005c5c4     LIBCMTD:getqloc.obj
 0002:0000c5d4       ??_C@_1BM@HKBCKIPC@?$AAg?$AAr?$AAe?$AAa?$AAt?$AA?5?$AAb?$AAr?$AAi?$AAt?$AAa?$AAi?$AAn?$AA?$AA@ 1005c5d4     LIBCMTD:getqloc.obj
 0002:0000c5f0       ??_C@_1BA@PPCHPGJB@?$AAh?$AAo?$AAl?$AAl?$AAa?$AAn?$AAd?$AA?$AA@ 1005c5f0     LIBCMTD:getqloc.obj
 0002:0000c600       ??_C@_1BE@JBMPEGDG@?$AAh?$AAo?$AAn?$AAg?$AA?9?$AAk?$AAo?$AAn?$AAg?$AA?$AA@ 1005c600     LIBCMTD:getqloc.obj
 0002:0000c614       ??_C@_1BI@KOELBBPJ@?$AAn?$AAe?$AAw?$AA?9?$AAz?$AAe?$AAa?$AAl?$AAa?$AAn?$AAd?$AA?$AA@ 1005c614     LIBCMTD:getqloc.obj
 0002:0000c62c       ??_C@_15HIEBHAIO@?$AAn?$AAz?$AA?$AA@ 1005c62c     LIBCMTD:getqloc.obj
 0002:0000c634       ??_C@_1BC@CHBCPFPI@?$AAp?$AAr?$AA?5?$AAc?$AAh?$AAi?$AAn?$AAa?$AA?$AA@ 1005c634     LIBCMTD:getqloc.obj
 0002:0000c648       ??_C@_1BC@JAOIIFKD@?$AAp?$AAr?$AA?9?$AAc?$AAh?$AAi?$AAn?$AAa?$AA?$AA@ 1005c648     LIBCMTD:getqloc.obj
 0002:0000c65c       ??_C@_1BI@BEHPPHKC@?$AAp?$AAu?$AAe?$AAr?$AAt?$AAo?$AA?9?$AAr?$AAi?$AAc?$AAo?$AA?$AA@ 1005c65c     LIBCMTD:getqloc.obj
 0002:0000c674       ??_C@_1O@PAEOFKDI@?$AAs?$AAl?$AAo?$AAv?$AAa?$AAk?$AA?$AA@ 1005c674     LIBCMTD:getqloc.obj
 0002:0000c684       ??_C@_1BK@FIHMCKAM@?$AAs?$AAo?$AAu?$AAt?$AAh?$AA?5?$AAa?$AAf?$AAr?$AAi?$AAc?$AAa?$AA?$AA@ 1005c684     LIBCMTD:getqloc.obj
 0002:0000c6a0       ??_C@_1BI@NAEOODKB@?$AAs?$AAo?$AAu?$AAt?$AAh?$AA?5?$AAk?$AAo?$AAr?$AAe?$AAa?$AA?$AA@ 1005c6a0     LIBCMTD:getqloc.obj
 0002:0000c6b8       ??_C@_1BK@FBDGGIFF@?$AAs?$AAo?$AAu?$AAt?$AAh?$AA?9?$AAa?$AAf?$AAr?$AAi?$AAc?$AAa?$AA?$AA@ 1005c6b8     LIBCMTD:getqloc.obj
 0002:0000c6d4       ??_C@_1BI@GHLEJDPK@?$AAs?$AAo?$AAu?$AAt?$AAh?$AA?9?$AAk?$AAo?$AAr?$AAe?$AAa?$AA?$AA@ 1005c6d4     LIBCMTD:getqloc.obj
 0002:0000c6ec       ??_C@_1CE@PLHLOMJF@?$AAt?$AAr?$AAi?$AAn?$AAi?$AAd?$AAa?$AAd?$AA?5?$AA?$CG?$AA?5?$AAt?$AAo?$AAb?$AAa?$AAg?$AAo?$AA?$AA@ 1005c6ec     LIBCMTD:getqloc.obj
 0002:0000c710       ??_C@_1BO@MODIMHHI@?$AAu?$AAn?$AAi?$AAt?$AAe?$AAd?$AA?9?$AAk?$AAi?$AAn?$AAg?$AAd?$AAo?$AAm?$AA?$AA@ 1005c710     LIBCMTD:getqloc.obj
 0002:0000c730       ??_C@_1BM@FFHJONBJ@?$AAu?$AAn?$AAi?$AAt?$AAe?$AAd?$AA?9?$AAs?$AAt?$AAa?$AAt?$AAe?$AAs?$AA?$AA@ 1005c730     LIBCMTD:getqloc.obj
 0002:0000c750       ___rg_language             1005c750     LIBCMTD:getqloc.obj
 0002:0000ca5c       ??_C@_1BC@LLOKLNP@?$AAa?$AAm?$AAe?$AAr?$AAi?$AAc?$AAa?$AAn?$AA?$AA@ 1005ca5c     LIBCMTD:getqloc.obj
 0002:0000ca70       ??_C@_1CC@HEIGCDGG@?$AAa?$AAm?$AAe?$AAr?$AAi?$AAc?$AAa?$AAn?$AA?5?$AAe?$AAn?$AAg?$AAl?$AAi?$AAs?$AAh?$AA?$AA@ 1005ca70     LIBCMTD:getqloc.obj
 0002:0000ca94       ??_C@_1CC@IHCNOMIN@?$AAa?$AAm?$AAe?$AAr?$AAi?$AAc?$AAa?$AAn?$AA?9?$AAe?$AAn?$AAg?$AAl?$AAi?$AAs?$AAh?$AA?$AA@ 1005ca94     LIBCMTD:getqloc.obj
 0002:0000cab8       ??_C@_1BG@GKAGPCGG@?$AAa?$AAu?$AAs?$AAt?$AAr?$AAa?$AAl?$AAi?$AAa?$AAn?$AA?$AA@ 1005cab8     LIBCMTD:getqloc.obj
 0002:0000cad0       ??_C@_1BA@GMENCENF@?$AAb?$AAe?$AAl?$AAg?$AAi?$AAa?$AAn?$AA?$AA@ 1005cad0     LIBCMTD:getqloc.obj
 0002:0000cae0       ??_C@_1BC@PJMIIAAN@?$AAc?$AAa?$AAn?$AAa?$AAd?$AAi?$AAa?$AAn?$AA?$AA@ 1005cae0     LIBCMTD:getqloc.obj
 0002:0000caf4       ??_C@_17NOIMNFBF@?$AAc?$AAh?$AAh?$AA?$AA@ 1005caf4     LIBCMTD:getqloc.obj
 0002:0000cafc       ??_C@_17GGDALCHA@?$AAc?$AAh?$AAi?$AA?$AA@ 1005cafc     LIBCMTD:getqloc.obj
 0002:0000cb04       ??_C@_1BA@NPNJKIBL@?$AAc?$AAh?$AAi?$AAn?$AAe?$AAs?$AAe?$AA?$AA@ 1005cb04     LIBCMTD:getqloc.obj
 0002:0000cb14       ??_C@_1CC@DINBAMMJ@?$AAc?$AAh?$AAi?$AAn?$AAe?$AAs?$AAe?$AA?9?$AAh?$AAo?$AAn?$AAg?$AAk?$AAo?$AAn?$AAg?$AA?$AA@ 1005cb14     LIBCMTD:getqloc.obj
 0002:0000cb38       ??_C@_1CG@IOBJPACO@?$AAc?$AAh?$AAi?$AAn?$AAe?$AAs?$AAe?$AA?9?$AAs?$AAi?$AAm?$AAp?$AAl?$AAi?$AAf?$AAi?$AAe?$AAd?$AA?$AA@ 1005cb38     LIBCMTD:getqloc.obj
 0002:0000cb60       ??_C@_1CE@GAJNDCKG@?$AAc?$AAh?$AAi?$AAn?$AAe?$AAs?$AAe?$AA?9?$AAs?$AAi?$AAn?$AAg?$AAa?$AAp?$AAo?$AAr?$AAe?$AA?$AA@ 1005cb60     LIBCMTD:getqloc.obj
 0002:0000cb84       ??_C@_1CI@PAJPIOOD@?$AAc?$AAh?$AAi?$AAn?$AAe?$AAs?$AAe?$AA?9?$AAt?$AAr?$AAa?$AAd?$AAi?$AAt?$AAi?$AAo?$AAn?$AAa?$AAl?$AA?$AA@ 1005cb84     LIBCMTD:getqloc.obj
 0002:0000cbac       ??_C@_1BM@NILJBMMD@?$AAd?$AAu?$AAt?$AAc?$AAh?$AA?9?$AAb?$AAe?$AAl?$AAg?$AAi?$AAa?$AAn?$AA?$AA@ 1005cbac     LIBCMTD:getqloc.obj
 0002:0000cbc8       ??_C@_1CC@OOJPJNEJ@?$AAe?$AAn?$AAg?$AAl?$AAi?$AAs?$AAh?$AA?9?$AAa?$AAm?$AAe?$AAr?$AAi?$AAc?$AAa?$AAn?$AA?$AA@ 1005cbc8     LIBCMTD:getqloc.obj
 0002:0000cbec       ??_C@_1BI@IOLFEEM@?$AAe?$AAn?$AAg?$AAl?$AAi?$AAs?$AAh?$AA?9?$AAa?$AAu?$AAs?$AA?$AA@ 1005cbec     LIBCMTD:getqloc.obj
 0002:0000cc04       ??_C@_1BO@HFFNLENJ@?$AAe?$AAn?$AAg?$AAl?$AAi?$AAs?$AAh?$AA?9?$AAb?$AAe?$AAl?$AAi?$AAz?$AAe?$AA?$AA@ 1005cc04     LIBCMTD:getqloc.obj
 0002:0000cc24       ??_C@_1BI@HAPKJMPO@?$AAe?$AAn?$AAg?$AAl?$AAi?$AAs?$AAh?$AA?9?$AAc?$AAa?$AAn?$AA?$AA@ 1005cc24     LIBCMTD:getqloc.obj
 0002:0000cc3c       ??_C@_1CE@HLNDMIOJ@?$AAe?$AAn?$AAg?$AAl?$AAi?$AAs?$AAh?$AA?9?$AAc?$AAa?$AAr?$AAi?$AAb?$AAb?$AAe?$AAa?$AAn?$AA?$AA@ 1005cc3c     LIBCMTD:getqloc.obj
 0002:0000cc60       ??_C@_1BI@LDHJHHAC@?$AAe?$AAn?$AAg?$AAl?$AAi?$AAs?$AAh?$AA?9?$AAi?$AAr?$AAe?$AA?$AA@ 1005cc60     LIBCMTD:getqloc.obj
 0002:0000cc78       ??_C@_1CA@NJMMCFOC@?$AAe?$AAn?$AAg?$AAl?$AAi?$AAs?$AAh?$AA?9?$AAj?$AAa?$AAm?$AAa?$AAi?$AAc?$AAa?$AA?$AA@ 1005cc78     LIBCMTD:getqloc.obj
 0002:0000cc98       ??_C@_1BG@BHJEBBGG@?$AAe?$AAn?$AAg?$AAl?$AAi?$AAs?$AAh?$AA?9?$AAn?$AAz?$AA?$AA@ 1005cc98     LIBCMTD:getqloc.obj
 0002:0000ccb0       ??_C@_1CK@FGOEJJCO@?$AAe?$AAn?$AAg?$AAl?$AAi?$AAs?$AAh?$AA?9?$AAs?$AAo?$AAu?$AAt?$AAh?$AA?5?$AAa?$AAf?$AAr?$AAi?$AAc?$AAa?$AA?$AA@ 1005ccb0     LIBCMTD:getqloc.obj
 0002:0000ccdc       ??_C@_1DE@PDBJPCJ@?$AAe?$AAn?$AAg?$AAl?$AAi?$AAs?$AAh?$AA?9?$AAt?$AAr?$AAi?$AAn?$AAi?$AAd?$AAa?$AAd?$AA?5?$AAy?$AA?5?$AAt?$AAo?$AAb?$AAa?$AAg?$AAo?$AA?$AA@ 1005ccdc     LIBCMTD:getqloc.obj
 0002:0000cd10       ??_C@_1BG@JGCANDME@?$AAe?$AAn?$AAg?$AAl?$AAi?$AAs?$AAh?$AA?9?$AAu?$AAk?$AA?$AA@ 1005cd10     LIBCMTD:getqloc.obj
 0002:0000cd28       ??_C@_1BG@DINKMLE@?$AAe?$AAn?$AAg?$AAl?$AAi?$AAs?$AAh?$AA?9?$AAu?$AAs?$AA?$AA@ 1005cd28     LIBCMTD:getqloc.obj
 0002:0000cd40       ??_C@_1BI@NMFDBHJE@?$AAe?$AAn?$AAg?$AAl?$AAi?$AAs?$AAh?$AA?9?$AAu?$AAs?$AAa?$AA?$AA@ 1005cd40     LIBCMTD:getqloc.obj
 0002:0000cd58       ??_C@_1BO@OIHKJKII@?$AAf?$AAr?$AAe?$AAn?$AAc?$AAh?$AA?9?$AAb?$AAe?$AAl?$AAg?$AAi?$AAa?$AAn?$AA?$AA@ 1005cd58     LIBCMTD:getqloc.obj
 0002:0000cd78       ??_C@_1CA@NKAELJKI@?$AAf?$AAr?$AAe?$AAn?$AAc?$AAh?$AA?9?$AAc?$AAa?$AAn?$AAa?$AAd?$AAi?$AAa?$AAn?$AA?$AA@ 1005cd78     LIBCMTD:getqloc.obj
 0002:0000cd98       ??_C@_1CE@MGKCNLGN@?$AAf?$AAr?$AAe?$AAn?$AAc?$AAh?$AA?9?$AAl?$AAu?$AAx?$AAe?$AAm?$AAb?$AAo?$AAu?$AAr?$AAg?$AA?$AA@ 1005cd98     LIBCMTD:getqloc.obj
 0002:0000cdbc       ??_C@_1BK@CEGEAILM@?$AAf?$AAr?$AAe?$AAn?$AAc?$AAh?$AA?9?$AAs?$AAw?$AAi?$AAs?$AAs?$AA?$AA@ 1005cdbc     LIBCMTD:getqloc.obj
 0002:0000cdd8       ??_C@_1CA@PAFKEOCC@?$AAg?$AAe?$AAr?$AAm?$AAa?$AAn?$AA?9?$AAa?$AAu?$AAs?$AAt?$AAr?$AAi?$AAa?$AAn?$AA?$AA@ 1005cdd8     LIBCMTD:getqloc.obj
 0002:0000cdf8       ??_C@_1CI@HCFHGOFD@?$AAg?$AAe?$AAr?$AAm?$AAa?$AAn?$AA?9?$AAl?$AAi?$AAc?$AAh?$AAt?$AAe?$AAn?$AAs?$AAt?$AAe?$AAi?$AAn?$AA?$AA@ 1005cdf8     LIBCMTD:getqloc.obj
 0002:0000ce20       ??_C@_1CE@FEDDNPDG@?$AAg?$AAe?$AAr?$AAm?$AAa?$AAn?$AA?9?$AAl?$AAu?$AAx?$AAe?$AAm?$AAb?$AAo?$AAu?$AAr?$AAg?$AA?$AA@ 1005ce20     LIBCMTD:getqloc.obj
 0002:0000ce48       ??_C@_1GC@FECJGAE@?$AAf?$AA?3?$AA?2?$AAd?$AAd?$AA?2?$AAv?$AAc?$AAt?$AAo?$AAo?$AAl?$AAs?$AA?2?$AAc?$AAr?$AAt?$AA_?$AAb?$AAl?$AAd?$AA?2?$AAs?$AAe?$AAl?$AAf?$AA_?$AAx?$AA8?$AA6?$AA?2?$AAc@ 1005ce48     LIBCMTD:getqloc.obj
 0002:0000ceac       ??_C@_1CO@NJACLALJ@?$AA_?$AA_?$AAg?$AAe?$AAt?$AA_?$AAq?$AAu?$AAa?$AAl?$AAi?$AAf?$AAi?$AAe?$AAd?$AA_?$AAl?$AAo?$AAc?$AAa?$AAl?$AAe?$AA?$AA@ 1005ceac     LIBCMTD:getqloc.obj
 0002:0000cee0       ??_C@_1BGM@FCCPEFDE@?$AAw?$AAc?$AAs?$AAn?$AAc?$AAp?$AAy?$AA_?$AAs?$AA?$CI?$AAl?$AAp?$AAO?$AAu?$AAt?$AAS?$AAt?$AAr?$AA?9?$AA?$DO?$AAs?$AAz?$AAL?$AAo?$AAc?$AAa?$AAl?$AAe?$AAN?$AAa?$AAm?$AAe@ 1005cee0     LIBCMTD:getqloc.obj
 0002:0000d04c       ??_C@_1CM@OGEMFJNJ@?$AAL?$AAa?$AAn?$AAg?$AAC?$AAo?$AAu?$AAn?$AAt?$AAr?$AAy?$AAE?$AAn?$AAu?$AAm?$AAP?$AAr?$AAo?$AAc?$AAE?$AAx?$AA?$AA@ 1005d04c     LIBCMTD:getqloc.obj
 0002:0000d078       ??_C@_1BFO@LLJKJAIC@?$AAw?$AAc?$AAs?$AAn?$AAc?$AAp?$AAy?$AA_?$AAs?$AA?$CI?$AA_?$AAp?$AAs?$AAe?$AAt?$AAl?$AAo?$AAc?$AA_?$AAd?$AAa?$AAt?$AAa?$AA?9?$AA?$DO?$AA_?$AAc?$AAa?$AAc?$AAh?$AAe?$AAL@ 1005d078     LIBCMTD:getqloc.obj
 0002:0000d1d8       ??_C@_1CG@PGLLICHO@?$AAL?$AAa?$AAn?$AAg?$AAu?$AAa?$AAg?$AAe?$AAE?$AAn?$AAu?$AAm?$AAP?$AAr?$AAo?$AAc?$AAE?$AAx?$AA?$AA@ 1005d1d8     LIBCMTD:getqloc.obj
 0002:0000d200       ??_C@_1DC@CPKFANGP@?$AAG?$AAe?$AAt?$AAL?$AAo?$AAc?$AAa?$AAl?$AAe?$AAN?$AAa?$AAm?$AAe?$AAF?$AAr?$AAo?$AAm?$AAD?$AAe?$AAf?$AAa?$AAu?$AAl?$AAt?$AA?$AA@ 1005d200     LIBCMTD:getqloc.obj
 0002:0000d238       ??_C@_1BEO@EJBNGKHB@?$AAw?$AAc?$AAs?$AAn?$AAc?$AAp?$AAy?$AA_?$AAs?$AA?$CI?$AA_?$AAp?$AAs?$AAe?$AAt?$AAl?$AAo?$AAc?$AA_?$AAd?$AAa?$AAt?$AAa?$AA?9?$AA?$DO?$AA_?$AAc?$AAa?$AAc?$AAh?$AAe?$AAL@ 1005d238     LIBCMTD:getqloc.obj
 0002:0000d388       ??_C@_17DNCLJFIF@?$AAA?$AAC?$AAP?$AA?$AA@ 1005d388     LIBCMTD:getqloc.obj
 0002:0000d390       ??_C@_17CIKBIHLH@?$AAO?$AAC?$AAP?$AA?$AA@ 1005d390     LIBCMTD:getqloc.obj
 0002:0000d398       ??_C@_1GE@BDAODJCD@?$AAf?$AA?3?$AA?2?$AAd?$AAd?$AA?2?$AAv?$AAc?$AAt?$AAo?$AAo?$AAl?$AAs?$AA?2?$AAc?$AAr?$AAt?$AA_?$AAb?$AAl?$AAd?$AA?2?$AAs?$AAe?$AAl?$AAf?$AA_?$AAx?$AA8?$AA6?$AA?2?$AAc@ 1005d398     LIBCMTD:dbgdel.obj
 0002:0000d400       ??_7type_info@@6B@         1005d400     LIBCMTD:typinfo.obj
 0002:0000d408       ??_7exception@std@@6B@     1005d408     LIBCMTD:stdexcpt.obj
 0002:0000d410       ??_C@_0BC@EOODALEL@Unknown?5exception?$AA@ 1005d410     LIBCMTD:stdexcpt.obj
 0002:0000d428       ??_7bad_cast@std@@6B@      1005d428     LIBCMTD:stdexcpt.obj
 0002:0000d434       ??_7bad_typeid@std@@6B@    1005d434     LIBCMTD:stdexcpt.obj
 0002:0000d440       ??_7__non_rtti_object@std@@6B@ 1005d440     LIBCMTD:stdexcpt.obj
 0002:0000d468       ??_C@_1GC@MHLPCCAP@?$AAf?$AA?3?$AA?2?$AAd?$AAd?$AA?2?$AAv?$AAc?$AAt?$AAo?$AAo?$AAl?$AAs?$AA?2?$AAc?$AAr?$AAt?$AA_?$AAb?$AAl?$AAd?$AA?2?$AAs?$AAe?$AAl?$AAf?$AA_?$AAx?$AA8?$AA6?$AA?2?$AAc@ 1005d468     LIBCMTD:wcsicmp.obj
 0002:0000d4cc       ??_C@_1BG@EELGPCPD@?$AA_?$AAw?$AAc?$AAs?$AAi?$AAc?$AAm?$AAp?$AA_?$AAl?$AA?$AA@ 1005d4cc     LIBCMTD:wcsicmp.obj
 0002:0000d4e4       ??_C@_1BC@NHIBDOMC@?$AA_?$AAw?$AAc?$AAs?$AAi?$AAc?$AAm?$AAp?$AA?$AA@ 1005d4e4     LIBCMTD:wcsicmp.obj
 0002:0000d4f8       ??_C@_1BM@CBACDFHA@?$AAf?$AAi?$AAr?$AAs?$AAt?$AA?5?$AA?$CB?$AA?$DN?$AA?5?$AAN?$AAU?$AAL?$AAL?$AA?$AA@ 1005d4f8     LIBCMTD:wcsnicmp.obj
 0002:0000d518       ??_C@_1GE@JMKOMBJH@?$AAf?$AA?3?$AA?2?$AAd?$AAd?$AA?2?$AAv?$AAc?$AAt?$AAo?$AAo?$AAl?$AAs?$AA?2?$AAc?$AAr?$AAt?$AA_?$AAb?$AAl?$AAd?$AA?2?$AAs?$AAe?$AAl?$AAf?$AA_?$AAx?$AA8?$AA6?$AA?2?$AAc@ 1005d518     LIBCMTD:wcsnicmp.obj
 0002:0000d57c       ??_C@_1BI@KLMFNDBC@?$AA_?$AAw?$AAc?$AAs?$AAn?$AAi?$AAc?$AAm?$AAp?$AA_?$AAl?$AA?$AA@ 1005d57c     LIBCMTD:wcsnicmp.obj
 0002:0000d594       ??_C@_1BK@LKBOPAFJ@?$AAl?$AAa?$AAs?$AAt?$AA?5?$AA?$CB?$AA?$DN?$AA?5?$AAN?$AAU?$AAL?$AAL?$AA?$AA@ 1005d594     LIBCMTD:wcsnicmp.obj
 0002:0000d5b0       ??_C@_1BE@JKOKKFEL@?$AA_?$AAw?$AAc?$AAs?$AAn?$AAi?$AAc?$AAm?$AAp?$AA?$AA@ 1005d5b0     LIBCMTD:wcsnicmp.obj
 0002:0000d5c4       ??_C@_1CK@GELGGBDK@?$AAp?$AAN?$AAo?$AAd?$AAe?$AA?9?$AA?$DO?$AA_?$AAN?$AAe?$AAx?$AAt?$AA?5?$AA?$CB?$AA?$DN?$AA?5?$AAN?$AAU?$AAL?$AAL?$AA?$AA@ 1005d5c4     LIBCMTD:typname.obj
 0002:0000d5f0       ??_C@_1HG@KNCBMCDD@?$AAf?$AA?3?$AA?2?$AAd?$AAd?$AA?2?$AAv?$AAc?$AAt?$AAo?$AAo?$AAl?$AAs?$AA?2?$AAc?$AAr?$AAt?$AA_?$AAb?$AAl?$AAd?$AA?2?$AAs?$AAe?$AAl?$AAf?$AA_?$AAx?$AA8?$AA6?$AA?2?$AAc@ 1005d5f0     LIBCMTD:typname.obj
 0002:0000d668       ??_C@_1CM@OOICDMK@?$AAt?$AAy?$AAp?$AAe?$AA_?$AAi?$AAn?$AAf?$AAo?$AA?3?$AA?3?$AA_?$AAN?$AAa?$AAm?$AAe?$AA_?$AAb?$AAa?$AAs?$AAe?$AA?$AA@ 1005d668     LIBCMTD:typname.obj
 0002:0000d698       ??_C@_1JK@NAFNEPGC@?$AAs?$AAt?$AAr?$AAc?$AAp?$AAy?$AA_?$AAs?$AA?5?$AA?$CI?$AA?$CI?$AAc?$AAh?$AAa?$AAr?$AA?5?$AA?$CK?$AA?$CJ?$AA?$CI?$AA?$CI?$AAt?$AAy?$AAp?$AAe?$AA_?$AAi?$AAn?$AAf?$AAo?$AA?5?$AA?$CK?$AA?$CJ@ 1005d698     LIBCMTD:typname.obj
 0002:0000d734       ??_C@_1DO@OJJLFJPE@?$AAt?$AAy?$AAp?$AAe?$AA_?$AAi?$AAn?$AAf?$AAo?$AA?3?$AA?3?$AA_?$AAN?$AAa?$AAm?$AAe?$AA_?$AAb?$AAa?$AAs?$AAe?$AA_?$AAi?$AAn?$AAt?$AAe?$AAr?$AAn?$AAa?$AAl?$AA?$AA@ 1005d734     LIBCMTD:typname.obj
 0002:0000d778       ??_C@_1GI@EAJKJPED@?$AAs?$AAt?$AAr?$AAc?$AAp?$AAy?$AA_?$AAs?$AA?5?$AA?$CI?$AAp?$AAT?$AAm?$AAp?$AAT?$AAy?$AAp?$AAe?$AAN?$AAa?$AAm?$AAe?$AA?0?$AA?5?$AAl?$AAe?$AAn?$AA?$CL?$AA2?$AA?0?$AA?5?$AA?$CI@ 1005d778     LIBCMTD:typname.obj
 0002:0000d7e0       ??_C@_1GA@OFLNHKCJ@?$AAf?$AA?3?$AA?2?$AAd?$AAd?$AA?2?$AAv?$AAc?$AAt?$AAo?$AAo?$AAl?$AAs?$AA?2?$AAc?$AAr?$AAt?$AA_?$AAb?$AAl?$AAd?$AA?2?$AAs?$AAe?$AAl?$AAf?$AA_?$AAx?$AA8?$AA6?$AA?2?$AAc@ 1005d7e0     LIBCMTD:wcstoq.obj
 0002:0000d840       ??_C@_1BA@FACINJJA@?$AAw?$AAc?$AAs?$AAt?$AAo?$AAx?$AAq?$AA?$AA@ 1005d840     LIBCMTD:wcstoq.obj
 0002:0000d9d8       ??_C@_08EHJDFFNH@__based?$CI?$AA@ 1005d9d8     LIBCMTD:undname.obj
 0002:0000d9e4       ??_C@_07KOLFKCDI@__cdecl?$AA@ 1005d9e4     LIBCMTD:undname.obj
 0002:0000d9ec       ??_C@_08GHMPAG@__pascal?$AA@ 1005d9ec     LIBCMTD:undname.obj
 0002:0000d9f8       ??_C@_09IFJBGAPI@__stdcall?$AA@ 1005d9f8     LIBCMTD:undname.obj
 0002:0000da04       ??_C@_0L@NPHFGOKO@__thiscall?$AA@ 1005da04     LIBCMTD:undname.obj
 0002:0000da10       ??_C@_0L@JMKHOMEK@__fastcall?$AA@ 1005da10     LIBCMTD:undname.obj
 0002:0000da1c       ??_C@_09HIJEGCPM@__clrcall?$AA@ 1005da1c     LIBCMTD:undname.obj
 0002:0000da28       ??_C@_06GHPCKEAG@__eabi?$AA@ 1005da28     LIBCMTD:undname.obj
 0002:0000da30       ??_C@_07JOMMBBKO@__ptr64?$AA@ 1005da30     LIBCMTD:undname.obj
 0002:0000da38       ??_C@_0L@PILCLIHE@__restrict?$AA@ 1005da38     LIBCMTD:undname.obj
 0002:0000da44       ??_C@_0M@GFIIJFMG@__unaligned?$AA@ 1005da44     LIBCMTD:undname.obj
 0002:0000da50       ??_C@_09DHDLOLLB@restrict?$CI?$AA@ 1005da50     LIBCMTD:undname.obj
 0002:0000da5c       ??_C@_04NIHEBCM@?5new?$AA@ 1005da5c     LIBCMTD:undname.obj
 0002:0000da64       ??_C@_07FPCDHGMM@?5delete?$AA@ 1005da64     LIBCMTD:undname.obj
 0002:0000da6c       ??_C@_01NEMOKFLO@?$DN?$AA@ 1005da6c     LIBCMTD:undname.obj
 0002:0000da70       ??_C@_02GPIOPFAK@?$DO?$DO?$AA@ 1005da70     LIBCMTD:undname.obj
 0002:0000da74       ??_C@_02FODMEDOG@?$DM?$DM?$AA@ 1005da74     LIBCMTD:undname.obj
 0002:0000da78       ??_C@_01DCLJPIOD@?$CB?$AA@ 1005da78     LIBCMTD:undname.obj
 0002:0000da7c       ??_C@_02EGOFBIJA@?$DN?$DN?$AA@ 1005da7c     LIBCMTD:undname.obj
 0002:0000da80       ??_C@_02FDNJECIE@?$CB?$DN?$AA@ 1005da80     LIBCMTD:undname.obj
 0002:0000da84       ??_C@_02GPECMEKF@?$FL?$FN?$AA@ 1005da84     LIBCMTD:undname.obj
 0002:0000da88       ??_C@_08LHJFAFGD@operator?$AA@ 1005da88     LIBCMTD:undname.obj
 0002:0000da94       ??_C@_02HBOOOICD@?9?$DO?$AA@ 1005da94     LIBCMTD:undname.obj
 0002:0000da98       ??_C@_01NBENCBCI@?$CK?$AA@ 1005da98     LIBCMTD:undname.obj
 0002:0000da9c       ??_C@_02ECNGHCIF@?$CL?$CL?$AA@ 1005da9c     LIBCMTD:undname.obj
 0002:0000daa0       ??_C@_02BAABKJLB@?9?9?$AA@ 1005daa0     LIBCMTD:undname.obj
 0002:0000daa4       ??_C@_01JOAMLHOP@?9?$AA@   1005daa4     LIBCMTD:undname.obj
 0002:0000daa8       ??_C@_01MIFGBAGJ@?$CL?$AA@ 1005daa8     LIBCMTD:undname.obj
 0002:0000daac       ??_C@_01HNPIGOCE@?$CG?$AA@ 1005daac     LIBCMTD:undname.obj
 0002:0000dab0       ??_C@_03MNHNFDLC@?9?$DO?$CK?$AA@ 1005dab0     LIBCMTD:undname.obj
 0002:0000dab4       ??_C@_01KMDKNFGN@?1?$AA@   1005dab4     LIBCMTD:undname.obj
 0002:0000dab8       ??_C@_01FGNFDNOH@?$CF?$AA@ 1005dab8     LIBCMTD:undname.obj
 0002:0000dabc       ??_C@_01MNNFJEPP@?$DM?$AA@ 1005dabc     LIBCMTD:undname.obj
 0002:0000dac0       ??_C@_02EHCHHCKH@?$DM?$DN?$AA@ 1005dac0     LIBCMTD:undname.obj
 0002:0000dac4       ??_C@_01PPODPGHN@?$DO?$AA@ 1005dac4     LIBCMTD:undname.obj
 0002:0000dac8       ??_C@_02EEKDKGMJ@?$DO?$DN?$AA@ 1005dac8     LIBCMTD:undname.obj
 0002:0000dacc       ??_C@_01IHBHIGKO@?0?$AA@   1005dacc     LIBCMTD:undname.obj
 0002:0000dad0       ??_C@_02HCKGKOFO@?$CI?$CJ?$AA@ 1005dad0     LIBCMTD:undname.obj
 0002:0000dad4       ??_C@_01PJKLJHI@?$HO?$AA@  1005dad4     LIBCMTD:undname.obj
 0002:0000dad8       ??_C@_01JKBOJNNK@?$FO?$AA@ 1005dad8     LIBCMTD:undname.obj
 0002:0000dadc       ??_C@_01DNKMNLPK@?$HM?$AA@ 1005dadc     LIBCMTD:undname.obj
 0002:0000dae0       ??_C@_02PPKAJPJL@?$CG?$CG?$AA@ 1005dae0     LIBCMTD:undname.obj
 0002:0000dae4       ??_C@_02NONPIBCD@?$HM?$HM?$AA@ 1005dae4     LIBCMTD:undname.obj
 0002:0000dae8       ??_C@_02FPIMKNGF@?$CK?$DN?$AA@ 1005dae8     LIBCMTD:undname.obj
 0002:0000daec       ??_C@_02FOEOMHFC@?$CL?$DN?$AA@ 1005daec     LIBCMTD:undname.obj
 0002:0000daf0       ??_C@_02FKMDLLOA@?9?$DN?$AA@ 1005daf0     LIBCMTD:undname.obj
 0002:0000daf4       ??_C@_02FJEHGPIO@?1?$DN?$AA@ 1005daf4     LIBCMTD:undname.obj
 0002:0000daf8       ??_C@_02FENAOKFI@?$CF?$DN?$AA@ 1005daf8     LIBCMTD:undname.obj
 0002:0000dafc       ??_C@_03IKFCCPFF@?$DO?$DO?$DN?$AA@ 1005dafc     LIBCMTD:undname.obj
 0002:0000db00       ??_C@_03CDNPDDLA@?$DM?$DM?$DN?$AA@ 1005db00     LIBCMTD:undname.obj
 0002:0000db04       ??_C@_02FGJGFEAB@?$CG?$DN?$AA@ 1005db04     LIBCMTD:undname.obj
 0002:0000db08       ??_C@_02DHLNPPGH@?$HM?$DN?$AA@ 1005db08     LIBCMTD:undname.obj
 0002:0000db0c       ??_C@_02MHEGNOJ@?$FO?$DN?$AA@ 1005db0c     LIBCMTD:undname.obj
 0002:0000db10       ??_C@_09IFPLHPGF@?$GAvftable?8?$AA@ 1005db10     LIBCMTD:undname.obj
 0002:0000db1c       ??_C@_09BLBHBJP@?$GAvbtable?8?$AA@ 1005db1c     LIBCMTD:undname.obj
 0002:0000db28       ??_C@_07FEEIOKP@?$GAvcall?8?$AA@ 1005db28     LIBCMTD:undname.obj
 0002:0000db30       ??_C@_08LLFFHHDJ@?$GAtypeof?8?$AA@ 1005db30     LIBCMTD:undname.obj
 0002:0000db3c       ??_C@_0BF@KDPPACIK@?$GAlocal?5static?5guard?8?$AA@ 1005db3c     LIBCMTD:undname.obj
 0002:0000db54       ??_C@_08OBABFOLI@?$GAstring?8?$AA@ 1005db54     LIBCMTD:undname.obj
 0002:0000db60       ??_C@_0BD@JDLKDPAB@?$GAvbase?5destructor?8?$AA@ 1005db60     LIBCMTD:undname.obj
 0002:0000db74       ??_C@_0BN@DEGPLNFK@?$GAvector?5deleting?5destructor?8?$AA@ 1005db74     LIBCMTD:undname.obj
 0002:0000db94       ??_C@_0BO@OBMKPJIG@?$GAdefault?5constructor?5closure?8?$AA@ 1005db94     LIBCMTD:undname.obj
 0002:0000dbb4       ??_C@_0BN@IMDCHIKM@?$GAscalar?5deleting?5destructor?8?$AA@ 1005dbb4     LIBCMTD:undname.obj
 0002:0000dbd4       ??_C@_0BO@PFGOCPJJ@?$GAvector?5constructor?5iterator?8?$AA@ 1005dbd4     LIBCMTD:undname.obj
 0002:0000dbf4       ??_C@_0BN@LFPFMEDL@?$GAvector?5destructor?5iterator?8?$AA@ 1005dbf4     LIBCMTD:undname.obj
 0002:0000dc14       ??_C@_0CE@IKBNEHA@?$GAvector?5vbase?5constructor?5iterat@ 1005dc14     LIBCMTD:undname.obj
 0002:0000dc38       ??_C@_0BL@NILFHHPC@?$GAvirtual?5displacement?5map?8?$AA@ 1005dc38     LIBCMTD:undname.obj
 0002:0000dc54       ??_C@_0CB@JONCMFFK@?$GAeh?5vector?5constructor?5iterator?8@ 1005dc54     LIBCMTD:undname.obj
 0002:0000dc78       ??_C@_0CA@GCEOPDGL@?$GAeh?5vector?5destructor?5iterator?8?$AA@ 1005dc78     LIBCMTD:undname.obj
 0002:0000dc98       ??_C@_0CH@OOJPLCPH@?$GAeh?5vector?5vbase?5constructor?5ite@ 1005dc98     LIBCMTD:undname.obj
 0002:0000dcc0       ??_C@_0BL@LLKPOHJI@?$GAcopy?5constructor?5closure?8?$AA@ 1005dcc0     LIBCMTD:undname.obj
 0002:0000dcdc       ??_C@_0BA@KBCDOMBN@?$GAudt?5returning?8?$AA@ 1005dcdc     LIBCMTD:undname.obj
 0002:0000dcec       ??_C@_03KLGMFNMG@?$GAEH?$AA@ 1005dcec     LIBCMTD:undname.obj
 0002:0000dcf0       ??_C@_05KHLCHHI@?$GARTTI?$AA@ 1005dcf0     LIBCMTD:undname.obj
 0002:0000dcf8       ??_C@_0BA@KKLDJDLB@?$GAlocal?5vftable?8?$AA@ 1005dcf8     LIBCMTD:undname.obj
 0002:0000dd08       ??_C@_0CE@IIHCMGGL@?$GAlocal?5vftable?5constructor?5closu@ 1005dd08     LIBCMTD:undname.obj
 0002:0000dd2c       ??_C@_06FHBGPFGH@?5new?$FL?$FN?$AA@ 1005dd2c     LIBCMTD:undname.obj
 0002:0000dd34       ??_C@_09LBNFPBCA@?5delete?$FL?$FN?$AA@ 1005dd34     LIBCMTD:undname.obj
 0002:0000dd40       ??_C@_0P@HJKNJFNN@?$GAomni?5callsig?8?$AA@ 1005dd40     LIBCMTD:undname.obj
 0002:0000dd50       ??_C@_0BL@CNOONJFP@?$GAplacement?5delete?5closure?8?$AA@ 1005dd50     LIBCMTD:undname.obj
 0002:0000dd6c       ??_C@_0BN@CKNJLHMB@?$GAplacement?5delete?$FL?$FN?5closure?8?$AA@ 1005dd6c     LIBCMTD:undname.obj
 0002:0000dd8c       ??_C@_0CG@CFDHKGGD@?$GAmanaged?5vector?5constructor?5iter@ 1005dd8c     LIBCMTD:undname.obj
 0002:0000ddb4       ??_C@_0CF@IMGKMJNO@?$GAmanaged?5vector?5destructor?5itera@ 1005ddb4     LIBCMTD:undname.obj
 0002:0000dddc       ??_C@_0CG@HLDDJMAG@?$GAeh?5vector?5copy?5constructor?5iter@ 1005dddc     LIBCMTD:undname.obj
 0002:0000de04       ??_C@_0CM@FCBBDIGB@?$GAeh?5vector?5vbase?5copy?5constructo@ 1005de04     LIBCMTD:undname.obj
 0002:0000de30       ??_C@_0BL@CLIPGLGB@?$GAdynamic?5initializer?5for?5?8?$AA@ 1005de30     LIBCMTD:undname.obj
 0002:0000de4c       ??_C@_0CB@PDBIFEP@?$GAdynamic?5atexit?5destructor?5for?5?8@ 1005de4c     LIBCMTD:undname.obj
 0002:0000de70       ??_C@_0CD@CGAJBKEJ@?$GAvector?5copy?5constructor?5iterato@ 1005de70     LIBCMTD:undname.obj
 0002:0000de94       ??_C@_0CJ@GJELGAMM@?$GAvector?5vbase?5copy?5constructor?5i@ 1005de94     LIBCMTD:undname.obj
 0002:0000dec0       ??_C@_0CL@FGIJHLCE@?$GAmanaged?5vector?5copy?5constructor@ 1005dec0     LIBCMTD:undname.obj
 0002:0000deec       ??_C@_0BM@PMGGMLDN@?$GAlocal?5static?5thread?5guard?8?$AA@ 1005deec     LIBCMTD:undname.obj
 0002:0000df08       ??_C@_0BC@DAFEJGAK@?5Type?5Descriptor?8?$AA@ 1005df08     LIBCMTD:undname.obj
 0002:0000df1c       ??_C@_0BM@LDKODKLH@?5Base?5Class?5Descriptor?5at?5?$CI?$AA@ 1005df1c     LIBCMTD:undname.obj
 0002:0000df38       ??_C@_0BD@LGICGFMM@?5Base?5Class?5Array?8?$AA@ 1005df38     LIBCMTD:undname.obj
 0002:0000df4c       ??_C@_0BN@MECKDCOJ@?5Class?5Hierarchy?5Descriptor?8?$AA@ 1005df4c     LIBCMTD:undname.obj
 0002:0000df6c       ??_C@_0BK@CFCOFLF@?5Complete?5Object?5Locator?8?$AA@ 1005df6c     LIBCMTD:undname.obj
 0002:0000df88       ??_C@_04HEJADOOB@CV?3?5?$AA@ 1005df88     LIBCMTD:undname.obj
 0002:0000df90       ??_C@_02MOLJINC@?3?3?$AA@  1005df90     LIBCMTD:undname.obj
 0002:0000df94       ??_C@_0BE@JAEOCHPE@template?9parameter?9?$AA@ 1005df94     LIBCMTD:undname.obj
 0002:0000dfa8       ??_C@_0O@KHGCOMHP@generic?9type?9?$AA@ 1005dfa8     LIBCMTD:undname.obj
 0002:0000dfb8       ??_C@_01NLNLIGKH@?$GA?$AA@ 1005dfb8     LIBCMTD:undname.obj
 0002:0000dfbc       ??_C@_01GEODFPGF@?8?$AA@   1005dfbc     LIBCMTD:undname.obj
 0002:0000dfc0       ??_C@_0BG@JNJLAMPM@?$GAanonymous?5namespace?8?$AA@ 1005dfc0     LIBCMTD:undname.obj
 0002:0000dfd8       ??_C@_02OHHJMEON@?8?8?$AA@ 1005dfd8     LIBCMTD:undname.obj
 0002:0000dfdc       ??_C@_0BN@IBLMMFAP@?$GAnon?9type?9template?9parameter?$AA@ 1005dfdc     LIBCMTD:undname.obj
 0002:0000dffc       ??_C@_04GKJNKENE@void?$AA@ 1005dffc     LIBCMTD:undname.obj
 0002:0000e004       ??_C@_0BE@EODMJLIF@?$GAtemplate?9parameter?$AA@ 1005e004     LIBCMTD:undname.obj
 0002:0000e018       ??_C@_04HIBGFPH@NULL?$AA@  1005e018     LIBCMTD:undname.obj
 0002:0000e020       ??_C@_03OPGICMGF@?$HN?8?5?$AA@ 1005e020     LIBCMTD:undname.obj
 0002:0000e024       ??_C@_02IGFCGPIL@?$HN?8?$AA@ 1005e024     LIBCMTD:undname.obj
 0002:0000e028       ??_C@_01CLKCMJKC@?5?$AA@   1005e028     LIBCMTD:undname.obj
 0002:0000e02c       ??_C@_0N@CBHHHENL@?$GAvtordispex?$HL?$AA@ 1005e02c     LIBCMTD:undname.obj
 0002:0000e03c       ??_C@_0L@GHPFDFH@?$GAvtordisp?$HL?$AA@ 1005e03c     LIBCMTD:undname.obj
 0002:0000e048       ??_C@_0L@HNGCOGAE@?$GAadjustor?$HL?$AA@ 1005e048     LIBCMTD:undname.obj
 0002:0000e054       ??_C@_0CB@KJDOOODE@?$GAlocal?5static?5destructor?5helper?8@ 1005e054     LIBCMTD:undname.obj
 0002:0000e078       ??_C@_0DB@ILEFOCIJ@?$GAtemplate?5static?5data?5member?5con@ 1005e078     LIBCMTD:undname.obj
 0002:0000e0ac       ??_C@_0DA@HGFJFBBE@?$GAtemplate?5static?5data?5member?5des@ 1005e0ac     LIBCMTD:undname.obj
 0002:0000e0dc       ??_C@_07PGOEDBHP@static?5?$AA@ 1005e0dc     LIBCMTD:undname.obj
 0002:0000e0e4       ??_C@_08NIEOINHE@virtual?5?$AA@ 1005e0e4     LIBCMTD:undname.obj
 0002:0000e0f0       ??_C@_09LAPHOOG@private?3?5?$AA@ 1005e0f0     LIBCMTD:undname.obj
 0002:0000e0fc       ??_C@_0M@GAIFPFIP@protected?3?5?$AA@ 1005e0fc     LIBCMTD:undname.obj
 0002:0000e108       ??_C@_08GPDDCMKI@public?3?5?$AA@ 1005e108     LIBCMTD:undname.obj
 0002:0000e114       ??_C@_08KJLFOPNE@?$FLthunk?$FN?3?$AA@ 1005e114     LIBCMTD:undname.obj
 0002:0000e120       ??_C@_0M@DHNBOJMP@extern?5?$CCC?$CC?5?$AA@ 1005e120     LIBCMTD:undname.obj
 0002:0000e12c       ??_C@_02KCKGHPCA@?$CJ?5?$AA@ 1005e12c     LIBCMTD:undname.obj
 0002:0000e130       ??_C@_05CIHEBHNO@char?5?$AA@ 1005e130     LIBCMTD:undname.obj
 0002:0000e138       ??_C@_06EHJMALKF@short?5?$AA@ 1005e138     LIBCMTD:undname.obj
 0002:0000e140       ??_C@_04LAHKHJMA@int?5?$AA@ 1005e140     LIBCMTD:undname.obj
 0002:0000e148       ??_C@_05CJIMAING@long?5?$AA@ 1005e148     LIBCMTD:undname.obj
 0002:0000e150       ??_C@_09EBBEKKIH@unsigned?5?$AA@ 1005e150     LIBCMTD:undname.obj
 0002:0000e15c       ??_C@_05BEFAKPML@void?5?$AA@ 1005e15c     LIBCMTD:undname.obj
 0002:0000e164       ??_C@_08PABEKFH@volatile?$AA@ 1005e164     LIBCMTD:undname.obj
 0002:0000e170       ??_C@_0P@GCOCNKDM@std?3?3nullptr_t?$AA@ 1005e170     LIBCMTD:undname.obj
 0002:0000e180       ??_C@_0L@EGPHHEKN@?$DMellipsis?$DO?$AA@ 1005e180     LIBCMTD:undname.obj
 0002:0000e18c       ??_C@_04EENFHACM@?0?4?4?4?$AA@ 1005e18c     LIBCMTD:undname.obj
 0002:0000e194       ??_C@_0M@ELJOJFFH@?0?$DMellipsis?$DO?$AA@ 1005e194     LIBCMTD:undname.obj
 0002:0000e1a0       ??_C@_07HDJPLPEK@?5throw?$CI?$AA@ 1005e1a0     LIBCMTD:undname.obj
 0002:0000e1a8       ??_C@_03PBJBJNON@cpu?$AA@  1005e1a8     LIBCMTD:undname.obj
 0002:0000e1ac       ??_C@_03DCBBJBAA@amp?$AA@  1005e1ac     LIBCMTD:undname.obj
 0002:0000e1b0       ??_C@_02KEGNLNML@?0?5?$AA@ 1005e1b0     LIBCMTD:undname.obj
 0002:0000e1b4       ??_C@_04ENMBGAPA@char?$AA@ 1005e1b4     LIBCMTD:undname.obj
 0002:0000e1bc       ??_C@_05BFKKPKCG@short?$AA@ 1005e1bc     LIBCMTD:undname.obj
 0002:0000e1c4       ??_C@_03JBIPMCLC@int?$AA@  1005e1c4     LIBCMTD:undname.obj
 0002:0000e1c8       ??_C@_04GOKPGOLB@long?$AA@ 1005e1c8     LIBCMTD:undname.obj
 0002:0000e1d0       ??_C@_05KNFBNCOH@float?$AA@ 1005e1d0     LIBCMTD:undname.obj
 0002:0000e1d8       ??_C@_06BNJCAIGJ@double?$AA@ 1005e1d8     LIBCMTD:undname.obj
 0002:0000e1e0       ??_C@_04DDKJGDCM@bool?$AA@ 1005e1e0     LIBCMTD:undname.obj
 0002:0000e1e8       ??_C@_06EBGKOKIG@__int8?$AA@ 1005e1e8     LIBCMTD:undname.obj
 0002:0000e1f0       ??_C@_07ICFHOGAF@__int16?$AA@ 1005e1f0     LIBCMTD:undname.obj
 0002:0000e1f8       ??_C@_07OFLPPHGP@__int32?$AA@ 1005e1f8     LIBCMTD:undname.obj
 0002:0000e200       ??_C@_07LFCOJCAC@__int64?$AA@ 1005e200     LIBCMTD:undname.obj
 0002:0000e208       ??_C@_08GAHOLHEO@__int128?$AA@ 1005e208     LIBCMTD:undname.obj
 0002:0000e214       ??_C@_09EEKGDCPH@?$DMunknown?$DO?$AA@ 1005e214     LIBCMTD:undname.obj
 0002:0000e220       ??_C@_07CLGGIAMF@wchar_t?$AA@ 1005e220     LIBCMTD:undname.obj
 0002:0000e228       ??_C@_06GCICPBLB@__w64?5?$AA@ 1005e228     LIBCMTD:undname.obj
 0002:0000e230       ??_C@_07NFANNNEC@UNKNOWN?$AA@ 1005e230     LIBCMTD:undname.obj
 0002:0000e238       ??_C@_07EDHNAJHC@signed?5?$AA@ 1005e238     LIBCMTD:undname.obj
 0002:0000e240       ??_C@_05BNCCCJPP@const?$AA@ 1005e240     LIBCMTD:undname.obj
 0002:0000e248       ??_C@_09EFNPDFFP@?5volatile?$AA@ 1005e248     LIBCMTD:undname.obj
 0002:0000e254       ??_C@_0P@GCIFDJCJ@?$GAunknown?5ecsu?8?$AA@ 1005e254     LIBCMTD:undname.obj
 0002:0000e264       ??_C@_06MOJHIBMG@union?5?$AA@ 1005e264     LIBCMTD:undname.obj
 0002:0000e26c       ??_C@_07DIBCDNGL@struct?5?$AA@ 1005e26c     LIBCMTD:undname.obj
 0002:0000e274       ??_C@_06LJBABKPM@class?5?$AA@ 1005e274     LIBCMTD:undname.obj
 0002:0000e27c       ??_C@_08KOFANOFK@coclass?5?$AA@ 1005e27c     LIBCMTD:undname.obj
 0002:0000e288       ??_C@_0N@DLIEFKNA@cointerface?5?$AA@ 1005e288     LIBCMTD:undname.obj
 0002:0000e298       ??_C@_05LJGMCFOG@enum?5?$AA@ 1005e298     LIBCMTD:undname.obj
 0002:0000e2a0       ??_C@_09GAIEOBLP@volatile?5?$AA@ 1005e2a0     LIBCMTD:undname.obj
 0002:0000e2ac       ??_C@_06LIJLOJAG@const?5?$AA@ 1005e2ac     LIBCMTD:undname.obj
 0002:0000e2b4       ??_C@_0M@EALIELKG@cli?3?3array?$DM?$AA@ 1005e2b4     LIBCMTD:undname.obj
 0002:0000e2c0       ??_C@_0O@GKABPPIF@cli?3?3pin_ptr?$DM?$AA@ 1005e2c0     LIBCMTD:undname.obj
 0002:0000e2d0       ??_C@_02GOGNNPBN@?$CJ?$FL?$AA@ 1005e2d0     LIBCMTD:undname.obj
 0002:0000e2d4       ??_C@_06EEGAIFAK@?$HLflat?$HN?$AA@ 1005e2d4     LIBCMTD:undname.obj
 0002:0000e2dc       ??_C@_05JIBOFOHK@?$HLfor?5?$AA@ 1005e2dc     LIBCMTD:undname.obj
 0002:0000e2e4       ??_C@_02MDINNEEG@s?5?$AA@  1005e2e4     LIBCMTD:undname.obj
 0002:0000e2ec       ??_7DNameNode@@6B@         1005e2ec     LIBCMTD:undname.obj
 0002:0000e2fc       ??_7charNode@@6B@          1005e2fc     LIBCMTD:undname.obj
 0002:0000e30c       ??_7pcharNode@@6B@         1005e30c     LIBCMTD:undname.obj
 0002:0000e31c       ??_7pDNameNode@@6B@        1005e31c     LIBCMTD:undname.obj
 0002:0000e32c       ??_7DNameStatusNode@@6B@   1005e32c     LIBCMTD:undname.obj
 0002:0000e33c       ??_7pairNode@@6B@          1005e33c     LIBCMTD:undname.obj
 0002:0000e348       ??_C@_04OKOHEJBO@?5?$DP?$DP?5?$AA@ 1005e348     LIBCMTD:undname.obj
 0002:0000e350       ??_C@_1GA@GIMEIKLC@?$AAf?$AA?3?$AA?2?$AAd?$AAd?$AA?2?$AAv?$AAc?$AAt?$AAo?$AAo?$AAl?$AAs?$AA?2?$AAc?$AAr?$AAt?$AA_?$AAb?$AAl?$AAd?$AA?2?$AAs?$AAe?$AAl?$AAf?$AA_?$AAx?$AA8?$AA6?$AA?2?$AAc@ 1005e350     LIBCMTD:strtoq.obj
 0002:0000e3b0       ??_C@_1BA@BMMDEPNE@?$AAs?$AAt?$AAr?$AAt?$AAo?$AAx?$AAq?$AA?$AA@ 1005e3b0     LIBCMTD:strtoq.obj
 0002:0000e3c0       __load_config_used         1005e3c0     LIBCMTD:loadcfg.obj
 0002:0000e460       ??_R4bad_exception@std@@6B@ 1005e460     LIBCMTD:frame.obj
 0002:0000e474       ??_R3bad_exception@std@@8  1005e474     LIBCMTD:frame.obj
 0002:0000e484       ??_R2bad_exception@std@@8  1005e484     LIBCMTD:frame.obj
 0002:0000e490       ??_R1A@?0A@EA@bad_exception@std@@8 1005e490     LIBCMTD:frame.obj
 0002:0000e4ac       ??_R1A@?0A@EA@exception@std@@8 1005e4ac     LIBCMTD:frame.obj
 0002:0000e4c8       ??_R3exception@std@@8      1005e4c8     LIBCMTD:frame.obj
 0002:0000e4d8       ??_R2exception@std@@8      1005e4d8     LIBCMTD:frame.obj
 0002:0000e4e0       ??_R4type_info@@6B@        1005e4e0     LIBCMTD:typinfo.obj
 0002:0000e4f4       ??_R3type_info@@8          1005e4f4     LIBCMTD:typinfo.obj
 0002:0000e504       ??_R2type_info@@8          1005e504     LIBCMTD:typinfo.obj
 0002:0000e50c       ??_R1A@?0A@EA@type_info@@8 1005e50c     LIBCMTD:typinfo.obj
 0002:0000e528       ??_R4exception@std@@6B@    1005e528     LIBCMTD:stdexcpt.obj
 0002:0000e53c       ??_R4bad_cast@std@@6B@     1005e53c     LIBCMTD:stdexcpt.obj
 0002:0000e550       ??_R3bad_cast@std@@8       1005e550     LIBCMTD:stdexcpt.obj
 0002:0000e560       ??_R2bad_cast@std@@8       1005e560     LIBCMTD:stdexcpt.obj
 0002:0000e56c       ??_R1A@?0A@EA@bad_cast@std@@8 1005e56c     LIBCMTD:stdexcpt.obj
 0002:0000e588       ??_R4bad_typeid@std@@6B@   1005e588     LIBCMTD:stdexcpt.obj
 0002:0000e59c       ??_R3bad_typeid@std@@8     1005e59c     LIBCMTD:stdexcpt.obj
 0002:0000e5ac       ??_R2bad_typeid@std@@8     1005e5ac     LIBCMTD:stdexcpt.obj
 0002:0000e5b8       ??_R1A@?0A@EA@bad_typeid@std@@8 1005e5b8     LIBCMTD:stdexcpt.obj
 0002:0000e5d4       ??_R4__non_rtti_object@std@@6B@ 1005e5d4     LIBCMTD:stdexcpt.obj
 0002:0000e5e8       ??_R3__non_rtti_object@std@@8 1005e5e8     LIBCMTD:stdexcpt.obj
 0002:0000e5f8       ??_R2__non_rtti_object@std@@8 1005e5f8     LIBCMTD:stdexcpt.obj
 0002:0000e608       ??_R1A@?0A@EA@__non_rtti_object@std@@8 1005e608     LIBCMTD:stdexcpt.obj
 0002:0000e624       ??_R4DNameNode@@6B@        1005e624     LIBCMTD:undname.obj
 0002:0000e638       ??_R3DNameNode@@8          1005e638     LIBCMTD:undname.obj
 0002:0000e648       ??_R2DNameNode@@8          1005e648     LIBCMTD:undname.obj
 0002:0000e650       ??_R1A@?0A@EA@DNameNode@@8 1005e650     LIBCMTD:undname.obj
 0002:0000e66c       ??_R4charNode@@6B@         1005e66c     LIBCMTD:undname.obj
 0002:0000e680       ??_R3charNode@@8           1005e680     LIBCMTD:undname.obj
 0002:0000e690       ??_R2charNode@@8           1005e690     LIBCMTD:undname.obj
 0002:0000e69c       ??_R1A@?0A@EA@charNode@@8  1005e69c     LIBCMTD:undname.obj
 0002:0000e6b8       ??_R4pcharNode@@6B@        1005e6b8     LIBCMTD:undname.obj
 0002:0000e6cc       ??_R3pcharNode@@8          1005e6cc     LIBCMTD:undname.obj
 0002:0000e6dc       ??_R2pcharNode@@8          1005e6dc     LIBCMTD:undname.obj
 0002:0000e6e8       ??_R1A@?0A@EA@pcharNode@@8 1005e6e8     LIBCMTD:undname.obj
 0002:0000e704       ??_R4pDNameNode@@6B@       1005e704     LIBCMTD:undname.obj
 0002:0000e718       ??_R3pDNameNode@@8         1005e718     LIBCMTD:undname.obj
 0002:0000e728       ??_R2pDNameNode@@8         1005e728     LIBCMTD:undname.obj
 0002:0000e734       ??_R1A@?0A@EA@pDNameNode@@8 1005e734     LIBCMTD:undname.obj
 0002:0000e750       ??_R4DNameStatusNode@@6B@  1005e750     LIBCMTD:undname.obj
 0002:0000e764       ??_R3DNameStatusNode@@8    1005e764     LIBCMTD:undname.obj
 0002:0000e774       ??_R2DNameStatusNode@@8    1005e774     LIBCMTD:undname.obj
 0002:0000e780       ??_R1A@?0A@EA@DNameStatusNode@@8 1005e780     LIBCMTD:undname.obj
 0002:0000e79c       ??_R4pairNode@@6B@         1005e79c     LIBCMTD:undname.obj
 0002:0000e7b0       ??_R3pairNode@@8           1005e7b0     LIBCMTD:undname.obj
 0002:0000e7c0       ??_R2pairNode@@8           1005e7c0     LIBCMTD:undname.obj
 0002:0000e7cc       ??_R1A@?0A@EA@pairNode@@8  1005e7cc     LIBCMTD:undname.obj
 0002:0000e7f0       ___safe_se_handler_table   1005e7f0     <linker-defined>
 0002:0000e820       ___rtc_iaa                 1005e820     LIBCMTD:initsect.obj
 0002:0000e834       ___rtc_izz                 1005e834     LIBCMTD:initsect.obj
 0002:0000e838       ___rtc_taa                 1005e838     LIBCMTD:initsect.obj
 0002:0000e84c       ___rtc_tzz                 1005e84c     LIBCMTD:initsect.obj
 0002:0000f1c4       __TI2?AVbad_exception@std@@ 1005f1c4     LIBCMTD:frame.obj
 0002:0000f1d4       __CTA2?AVbad_exception@std@@ 1005f1d4     LIBCMTD:frame.obj
 0002:0000f1e0       __CT??_R0?AVbad_exception@std@@@8??0bad_exception@std@@QAE@ABV01@@Z12 1005f1e0     LIBCMTD:frame.obj
 0002:0000f1fc       __CT??_R0?AVexception@std@@@8??0exception@std@@QAE@ABV01@@Z12 1005f1fc     LIBCMTD:frame.obj
 0002:0000f3b4       __IMPORT_DESCRIPTOR_WS2_32 1005f3b4     ws2_32:WS2_32.dll
 0002:0000f3c8       __IMPORT_DESCRIPTOR_KERNEL32 1005f3c8     kernel32:KERNEL32.dll
 0002:0000f3dc       __NULL_IMPORT_DESCRIPTOR   1005f3dc     ws2_32:WS2_32.dll
 0003:00000e84       __fltused                  10061e84     LIBCMTD:fpinit.obj
 0003:00000e88       __ldused                   10061e88     LIBCMTD:fpinit.obj
 0003:00000e90       __iob                      10061e90     LIBCMTD:_file.obj
 0003:00001280       ___security_cookie         10062280     LIBCMTD:gs_cookie.obj
 0003:00001284       ___security_cookie_complement 10062284     LIBCMTD:gs_cookie.obj
 0003:00001288       ?_RTC_ErrorLevels@@3PAHA   10062288     LIBCMTD:error.obj
 0003:0000129c       ___abort_behavior          1006229c     LIBCMTD:abort.obj
 0003:000012a0       __cfltcvt_tab              100622a0     LIBCMTD:cmiscdat.obj
 0003:000013f0       __crtDbgFlag               100623f0     LIBCMTD:dbgheap.obj
 0003:000013f4       __crtBreakAlloc            100623f4     LIBCMTD:dbgheap.obj
 0003:000013f8       ___crtDebugFillThreshold   100623f8     LIBCMTD:dbgheap.obj
 0003:00001400       ___nullstring              10062400     LIBCMTD:output.obj
 0003:00001404       ___wnullstring             10062404     LIBCMTD:output.obj
 0003:00001408       ___badioinfo               10062408     LIBCMTD:ioinit.obj
 0003:00001448       ___flsindex                10062448     LIBCMTD:tidtable.obj
 0003:0000144c       ___isa_enabled             1006244c     LIBCMTD:cpu_disp.obj
 0003:00001450       __sys_nerr                 10062450     LIBCMTD:syserr.obj
 0003:00001460       __pfnAllocHook             10062460     LIBCMTD:dbghook.obj
 0003:0000146c       ___ptmbcinfo               1006246c     LIBCMTD:mbctype.obj
 0003:00001560       __mbctype                  10062560     LIBCMTD:mbctype.obj
 0003:00001668       __mbcasemap                10062668     LIBCMTD:mbctype.obj
 0003:00001768       ___initialmbcinfo          10062768     LIBCMTD:mbctype.obj
 0003:000019a0       ___wclocalestr             100629a0     LIBCMTD:nlsdata.obj
 0003:000019a8       ___lc_time_c               100629a8     LIBCMTD:nlsdata.obj
 0003:00001b0c       ___ptlocinfo               10062b0c     LIBCMTD:nlsdata.obj
 0003:00001b10       ___initiallocinfo          10062b10     LIBCMTD:nlsdata.obj
 0003:00001bc8       ___initiallocalestructinfo 10062bc8     LIBCMTD:nlsdata.obj
 0003:00001bd0       ___mb_cur_max              10062bd0     LIBCMTD:nlsdata.obj
 0003:00001bd4       ___globallocalestatus      10062bd4     LIBCMTD:glstatus.obj
 0003:00001bd8       __CrtDbgMode               10062bd8     LIBCMTD:dbgrptt.obj
 0003:00001be4       __CrtDbgFile               10062be4     LIBCMTD:dbgrptt.obj
 0003:00001bf0       __crtAssertBusy            10062bf0     LIBCMTD:dbgrptt.obj
 0003:00001c00       ___lconv                   10062c00     LIBCMTD:lconv.obj
 0003:00001c04       ___lconv_static_decimal    10062c04     LIBCMTD:lconv.obj
 0003:00001c08       ___lconv_c                 10062c08     LIBCMTD:lconv.obj
 0003:00001c58       ___lconv_static_W_decimal  10062c58     LIBCMTD:lconv.obj
 0003:00001c90       __pctype                   10062c90     LIBCMTD:ctype.obj
 0003:00001c94       __pwctype                  10062c94     LIBCMTD:ctype.obj
 0003:00001ca0       __NLG_Destination          10062ca0     LIBCMTD:exsup.obj
 0003:00001cb0       __confh                    10062cb0     LIBCMTD:initcon.obj
 0003:00001cc0       ??_R0?AVbad_exception@std@@@8 10062cc0     LIBCMTD:frame.obj
 0003:00001ce0       ??_R0?AVexception@std@@@8  10062ce0     LIBCMTD:frame.obj
 0003:00001d00       __pow10pos                 10062d00     LIBCMTD:constpow.obj
 0003:00001e60       __pow10neg                 10062e60     LIBCMTD:constpow.obj
 0003:00001fe0       ??_R0?AVtype_info@@@8      10062fe0     LIBCMTD:typinfo.obj
 0003:00001ff8       ??_R0?AVbad_cast@std@@@8   10062ff8     LIBCMTD:stdexcpt.obj
 0003:00002014       ??_R0?AVbad_typeid@std@@@8 10063014     LIBCMTD:stdexcpt.obj
 0003:00002034       ??_R0?AV__non_rtti_object@std@@@8 10063034     LIBCMTD:stdexcpt.obj
 0003:00002058       ??_R0?AVDNameNode@@@8      10063058     LIBCMTD:undname.obj
 0003:00002070       ??_R0?AVcharNode@@@8       10063070     LIBCMTD:undname.obj
 0003:00002088       ??_R0?AVpcharNode@@@8      10063088     LIBCMTD:undname.obj
 0003:000020a0       ??_R0?AVpDNameNode@@@8     100630a0     LIBCMTD:undname.obj
 0003:000020bc       ??_R0?AVDNameStatusNode@@@8 100630bc     LIBCMTD:undname.obj
 0003:000020dc       ??_R0?AVpairNode@@@8       100630dc     LIBCMTD:undname.obj
 0003:00002104       ___fastflag                10063104     LIBCMTD:fpinit.obj
 0003:00002108       __cflush                   10063108     LIBCMTD:_file.obj
 0003:00002110       ?wsprintffp@@3P6AHPADPBDZZA 10063110     LIBCMTD:error.obj
 0003:0000243c       __aenvptr                  1006343c     LIBCMTD:dllcrt0.obj
 0003:00002440       __wenvptr                  10063440     LIBCMTD:dllcrt0.obj
 0003:00002444       ___pInvalidArgHandler      10063444     LIBCMTD:invarg.obj
 0003:00002448       __C_Exit_Done              10063448     LIBCMTD:crt0dat.obj
 0003:00002450       ___argc                    10063450     LIBCMTD:crt0dat.obj
 0003:00002454       ___argv                    10063454     LIBCMTD:crt0dat.obj
 0003:00002458       ___wargv                   10063458     LIBCMTD:crt0dat.obj
 0003:0000245c       __environ                  1006345c     LIBCMTD:crt0dat.obj
 0003:00002460       __wenviron                 10063460     LIBCMTD:crt0dat.obj
 0003:00002464       __pgmptr                   10063464     LIBCMTD:crt0dat.obj
 0003:00002468       __wpgmptr                  10063468     LIBCMTD:crt0dat.obj
 0003:0000246c       __umaskval                 1006346c     LIBCMTD:crt0dat.obj
 0003:00002470       __exitflag                 10063470     LIBCMTD:crt0dat.obj
 0003:00002474       __C_Termination_Done       10063474     LIBCMTD:crt0dat.obj
 0003:00002478       ___winitenv                10063478     LIBCMTD:crt0dat.obj
 0003:0000247c       ___initenv                 1006347c     LIBCMTD:crt0dat.obj
 0003:00002480       ___error_mode              10063480     LIBCMTD:errmode.obj
 0003:000024b0       ___app_type                100634b0     LIBCMTD:crt0msg.obj
 0003:00002c54       ?_pfnDumpClient@@3P6AXPAXI@ZA 10063c54     LIBCMTD:dbgheap.obj
 0003:00002c58       ___crtDebugCheckCount      10063c58     LIBCMTD:dbgheap.obj
 0003:00002c74       __stdbuf                   10063c74     LIBCMTD:_sftbuf.obj
 0003:00002c7c       ___ioInitOnce              10063c7c     LIBCMTD:ioinit.obj
 0003:00002c80       __newmode                  10063c80     LIBCMTD:_newmode.obj
 0003:00002c84       ___isa_available           10063c84     LIBCMTD:cpu_disp.obj
 0003:00002c88       ___favor                   10063c88     LIBCMTD:cpu_disp.obj
 0003:00002c94       __crtheap                  10063c94     LIBCMTD:heapinit.obj
 0003:00002da0       ?__pInconsistency@@3P6AXXZA 10063da0     LIBCMTD:hooks.obj
 0003:00002da4       ?_pnhHeap@@3P6AHI@ZA       10063da4     LIBCMTD:handler.obj
 0003:00002da8       ___pPurecall               10063da8     LIBCMTD:inithelp.obj
 0003:00002db0       ___mblocalename            10063db0     LIBCMTD:mbctype.obj
 0003:00002db4       ___mbcodepage              10063db4     LIBCMTD:mbctype.obj
 0003:00002db8       ___ismbcodepage            10063db8     LIBCMTD:mbctype.obj
 0003:00002dbc       ___mbulinfo                10063dbc     LIBCMTD:mbctype.obj
 0003:00002dcc       __outputformat             10063dcc     LIBCMTD:outputformat.obj
 0003:00002dd0       ___lconv_static_null       10063dd0     LIBCMTD:lconv.obj
 0003:00002dd4       ___lconv_static_W_null     10063dd4     LIBCMTD:lconv.obj
 0003:00002dd8       ___locale_changed          10063dd8     LIBCMTD:wsetloca.obj
 0003:00002de4       ?pArgList@UnDecorator@@0PAVReplicator@@A 10063de4     LIBCMTD:undname.obj
 0003:00002de8       ?pZNameList@UnDecorator@@0PAVReplicator@@A 10063de8     LIBCMTD:undname.obj
 0003:00002dec       ?pTemplateArgList@UnDecorator@@0PAVReplicator@@A 10063dec     LIBCMTD:undname.obj
 0003:00002df0       ?gName@UnDecorator@@0PBDB  10063df0     LIBCMTD:undname.obj
 0003:00002df4       ?name@UnDecorator@@0PBDB   10063df4     LIBCMTD:undname.obj
 0003:00002df8       ?outputString@UnDecorator@@0PADA 10063df8     LIBCMTD:undname.obj
 0003:00002dfc       ?maxStringLength@UnDecorator@@0HA 10063dfc     LIBCMTD:undname.obj
 0003:00002e00       ?disableFlags@UnDecorator@@0KA 10063e00     LIBCMTD:undname.obj
 0003:00002e04       ?fExplicitTemplateParams@UnDecorator@@0_NA 10063e04     LIBCMTD:undname.obj
 0003:00002e05       ?fGetTemplateArgumentList@UnDecorator@@0_NA 10063e05     LIBCMTD:undname.obj
 0003:00002e08       ?m_pGetParameter@UnDecorator@@0P6APADJ@ZA 10063e08     LIBCMTD:undname.obj
 0003:00002e70       ?nodes@?1??make@DNameStatusNode@@SAPAV2@W4DNameStatus@@@Z@4PAV2@A 10063e70     LIBCMTD:undname.obj
 0003:00002ea0       ??_B?1??make@DNameStatusNode@@SAPAV1@W4DNameStatus@@@Z@51 10063ea0     LIBCMTD:undname.obj
 0003:00002ec0       ?buff@?1??gai_strerrorA@@9@9 10063ec0     <common>
 0003:000032c4       ___unguarded_readlc_active 100642c4     <common>
 0003:000032c8       ___setlc_active            100642c8     <common>
 0003:000032cc       __pReportHookListW         100642cc     <common>
 0003:000032d0       __pReportHookList          100642d0     <common>
 0003:000032d4       __pfnReportHook            100642d4     <common>
 0003:000032d8       __debugger_hook_dummy      100642d8     <common>
 0003:000032dc       __nhandle                  100642dc     <common>
 0003:000032e0       ___pioinfo                 100642e0     <common>
 0003:000033e0       ___dyn_tls_init_callback   100643e0     <common>
 0003:000033e4       ___onexitend               100643e4     <common>
 0003:000033e8       ___onexitbegin             100643e8     <common>
 0003:000033ec       ___mbctype_initialized     100643ec     <common>
 0003:000033f0       ___env_initialized         100643f0     <common>
 0003:000033f4       __acmdln                   100643f4     <common>
 0003:000033f8       ___piob                    100643f8     <common>
 0003:000033fc       __nstream                  100643fc     <common>
 0003:00003400       __bufin                    10064400     <common>

 entry point at        0001:000097a0

 Static symbols

 0000:fff95000       .debug$S                   10000000     ws2_32:WS2_32.dll
 0000:fff95000       .debug$S                   10000000     kernel32:KERNEL32.dll
 0000:fff95000       .debug$S                   10000000     kernel32:KERNEL32.dll
 0000:fff95000       .debug$S                   10000000     kernel32:KERNEL32.dll
 0000:fff95000       .debug$S                   10000000     kernel32:KERNEL32.dll
 0000:fff95000       .debug$S                   10000000     kernel32:KERNEL32.dll
 0000:fff95000       .debug$S                   10000000     kernel32:KERNEL32.dll
 0000:fff95000       .debug$S                   10000000     kernel32:KERNEL32.dll
 0000:fff95000       .debug$S                   10000000     kernel32:KERNEL32.dll
 0000:fff95000       .debug$S                   10000000     kernel32:KERNEL32.dll
 0000:fff95000       .debug$S                   10000000     kernel32:KERNEL32.dll
 0000:fff95000       .debug$S                   10000000     kernel32:KERNEL32.dll
 0000:fff95000       .debug$S                   10000000     kernel32:KERNEL32.dll
 0000:fff95000       .debug$S                   10000000     kernel32:KERNEL32.dll
 0000:fff95000       .debug$S                   10000000     kernel32:KERNEL32.dll
 0000:fff95000       .debug$S                   10000000     kernel32:KERNEL32.dll
 0000:fff95000       .debug$S                   10000000     kernel32:KERNEL32.dll
 0000:fff95000       .debug$S                   10000000     kernel32:KERNEL32.dll
 0000:fff95000       .debug$S                   10000000     kernel32:KERNEL32.dll
 0000:fff95000       .debug$S                   10000000     kernel32:KERNEL32.dll
 0000:fff95000       .debug$S                   10000000     kernel32:KERNEL32.dll
 0000:fff95000       .debug$S                   10000000     kernel32:KERNEL32.dll
 0000:fff95000       .debug$S                   10000000     kernel32:KERNEL32.dll
 0000:fff95000       .debug$S                   10000000     ws2_32:WS2_32.dll
 0000:fff95000       .debug$S                   10000000     ws2_32:WS2_32.dll
 0000:fff95000       .debug$S                   10000000     ws2_32:WS2_32.dll
 0000:fff95000       .debug$S                   10000000     ws2_32:WS2_32.dll
 0000:fff95000       .debug$S                   10000000     ws2_32:WS2_32.dll
 0000:fff95000       .debug$S                   10000000     ws2_32:WS2_32.dll
 0000:fff95000       .debug$S                   10000000     ws2_32:WS2_32.dll
 0000:fff95000       .debug$S                   10000000     ws2_32:WS2_32.dll
 0000:fff95000       .debug$S                   10000000     ws2_32:WS2_32.dll
 0000:fff95000       .debug$S                   10000000     ws2_32:WS2_32.dll
 0000:fff95000       .debug$S                   10000000     ws2_32:WS2_32.dll
 0000:fff95000       .debug$S                   10000000     ws2_32:WS2_32.dll
 0000:fff95000       .debug$S                   10000000     ws2_32:WS2_32.dll
 0000:fff95000       .debug$S                   10000000     ws2_32:WS2_32.dll
 0000:fff95000       .debug$S                   10000000     ws2_32:WS2_32.dll
 0000:fff95000       .debug$S                   10000000     ws2_32:WS2_32.dll
 0000:fff95000       .debug$S                   10000000     ws2_32:WS2_32.dll
 0000:fff95000       .debug$S                   10000000     ws2_32:WS2_32.dll
 0000:fff95000       .debug$S                   10000000     ws2_32:WS2_32.dll
 0000:fff95000       .debug$S                   10000000     ws2_32:WS2_32.dll
 0000:fff95000       .debug$S                   10000000     kernel32:KERNEL32.dll
 0000:fff95000       .debug$S                   10000000     kernel32:KERNEL32.dll
 0000:fff95000       .debug$S                   10000000     kernel32:KERNEL32.dll
 0000:fff95000       .debug$S                   10000000     kernel32:KERNEL32.dll
 0000:fff95000       .debug$S                   10000000     kernel32:KERNEL32.dll
 0000:fff95000       .debug$S                   10000000     kernel32:KERNEL32.dll
 0000:fff95000       .debug$S                   10000000     kernel32:KERNEL32.dll
 0000:fff95000       .debug$S                   10000000     kernel32:KERNEL32.dll
 0000:fff95000       .debug$S                   10000000     kernel32:KERNEL32.dll
 0000:fff95000       .debug$S                   10000000     kernel32:KERNEL32.dll
 0000:fff95000       .debug$S                   10000000     kernel32:KERNEL32.dll
 0000:fff95000       .debug$S                   10000000     kernel32:KERNEL32.dll
 0000:fff95000       .debug$S                   10000000     kernel32:KERNEL32.dll
 0000:fff95000       .debug$S                   10000000     kernel32:KERNEL32.dll
 0000:fff95000       .debug$S                   10000000     kernel32:KERNEL32.dll
 0000:fff95000       .debug$S                   10000000     kernel32:KERNEL32.dll
 0000:fff95000       .debug$S                   10000000     kernel32:KERNEL32.dll
 0000:fff95000       .debug$S                   10000000     kernel32:KERNEL32.dll
 0000:fff95000       .debug$S                   10000000     kernel32:KERNEL32.dll
 0000:fff95000       .debug$S                   10000000     kernel32:KERNEL32.dll
 0000:fff95000       .debug$S                   10000000     kernel32:KERNEL32.dll
 0000:fff95000       .debug$S                   10000000     kernel32:KERNEL32.dll
 0000:fff95000       .debug$S                   10000000     kernel32:KERNEL32.dll
 0000:fff95000       .debug$S                   10000000     kernel32:KERNEL32.dll
 0000:fff95000       .debug$S                   10000000     kernel32:KERNEL32.dll
 0000:fff95000       .debug$S                   10000000     kernel32:KERNEL32.dll
 0000:fff95000       .debug$S                   10000000     kernel32:KERNEL32.dll
 0000:fff95000       .debug$S                   10000000     kernel32:KERNEL32.dll
 0000:fff95000       .debug$S                   10000000     kernel32:KERNEL32.dll
 0000:fff95000       .debug$S                   10000000     kernel32:KERNEL32.dll
 0000:fff95000       .debug$S                   10000000     kernel32:KERNEL32.dll
 0000:fff95000       .debug$S                   10000000     kernel32:KERNEL32.dll
 0000:fff95000       .debug$S                   10000000     kernel32:KERNEL32.dll
 0000:fff95000       .debug$S                   10000000     kernel32:KERNEL32.dll
 0000:fff95000       .debug$S                   10000000     kernel32:KERNEL32.dll
 0000:fff95000       .debug$S                   10000000     kernel32:KERNEL32.dll
 0000:fff95000       .debug$S                   10000000     kernel32:KERNEL32.dll
 0000:fff95000       .debug$S                   10000000     kernel32:KERNEL32.dll
 0000:fff95000       .debug$S                   10000000     kernel32:KERNEL32.dll
 0000:fff95000       .debug$S                   10000000     kernel32:KERNEL32.dll
 0000:fff95000       .debug$S                   10000000     kernel32:KERNEL32.dll
 0000:fff95000       .debug$S                   10000000     kernel32:KERNEL32.dll
 0000:fff95000       .debug$S                   10000000     kernel32:KERNEL32.dll
 0000:fff95000       .debug$S                   10000000     kernel32:KERNEL32.dll
 0000:fff95000       .debug$S                   10000000     kernel32:KERNEL32.dll
 0000:fff95000       .debug$S                   10000000     kernel32:KERNEL32.dll
 0000:fff95000       .debug$S                   10000000     kernel32:KERNEL32.dll
 0000:fff95000       .debug$S                   10000000     kernel32:KERNEL32.dll
 0000:fff95000       .debug$S                   10000000     kernel32:KERNEL32.dll
 0000:fff95000       .debug$S                   10000000     kernel32:KERNEL32.dll
 0000:fff95000       .debug$S                   10000000     kernel32:KERNEL32.dll
 0000:fff95000       .debug$S                   10000000     kernel32:KERNEL32.dll
 0000:fff95000       .debug$S                   10000000     kernel32:KERNEL32.dll
 0000:fff95000       .debug$S                   10000000     kernel32:KERNEL32.dll
 0000:fff95000       .debug$S                   10000000     kernel32:KERNEL32.dll
 0000:fff95000       .debug$S                   10000000     kernel32:KERNEL32.dll
 0000:fff95000       .debug$S                   10000000     kernel32:KERNEL32.dll
 0000:fff95000       .debug$S                   10000000     kernel32:KERNEL32.dll
 0000:fff95000       .debug$S                   10000000     kernel32:KERNEL32.dll
 0000:fff95000       .debug$S                   10000000     kernel32:KERNEL32.dll
 0000:fff95000       .debug$S                   10000000     kernel32:KERNEL32.dll
 0000:fff95000       .debug$S                   10000000     kernel32:KERNEL32.dll
 0000:fff95000       .debug$S                   10000000     kernel32:KERNEL32.dll
 0000:fff95000       .debug$S                   10000000     kernel32:KERNEL32.dll
 0000:fff95000       .debug$S                   10000000     kernel32:KERNEL32.dll
 0000:fff95000       .debug$S                   10000000     kernel32:KERNEL32.dll
 0000:fff95000       .debug$S                   10000000     kernel32:KERNEL32.dll
 0000:fff95000       .debug$S                   10000000     kernel32:KERNEL32.dll
 0000:fff95000       .debug$S                   10000000     kernel32:KERNEL32.dll
 0000:fff95000       .debug$S                   10000000     kernel32:KERNEL32.dll
 0000:fff95000       .debug$S                   10000000     kernel32:KERNEL32.dll
 0001:000005b0       __modbus_set_slave         100015b0 f   modbus-rtu.obj
 0001:000005e0       __modbus_rtu_build_request_basis 100015e0 f   modbus-rtu.obj
 0001:00000680       __modbus_rtu_build_response_basis 10001680 f   modbus-rtu.obj
 0001:000006c0       _crc16                     100016c0 f   modbus-rtu.obj
 0001:00000740       __modbus_rtu_prepare_response_tid 10001740 f   modbus-rtu.obj
 0001:00000760       __modbus_rtu_send_msg_pre  10001760 f   modbus-rtu.obj
 0001:000007c0       _win32_ser_init            100017c0 f   modbus-rtu.obj
 0001:000007f0       _win32_ser_select          100017f0 f   modbus-rtu.obj
 0001:00000900       _win32_ser_read            10001900 f   modbus-rtu.obj
 0001:00000960       __modbus_rtu_send          10001960 f   modbus-rtu.obj
 0001:000009b0       __modbus_rtu_receive       100019b0 f   modbus-rtu.obj
 0001:00000a40       __modbus_rtu_recv          10001a40 f   modbus-rtu.obj
 0001:00000a60       __modbus_rtu_flush         10001a60 f   modbus-rtu.obj
 0001:00000ab0       __modbus_rtu_pre_check_confirmation 10001ab0 f   modbus-rtu.obj
 0001:00000b50       __modbus_rtu_check_integrity 10001b50 f   modbus-rtu.obj
 0001:00000c40       __modbus_rtu_connect       10001c40 f   modbus-rtu.obj
 0001:00001110       __modbus_rtu_close         10002110 f   modbus-rtu.obj
 0001:000011b0       __modbus_rtu_select        100021b0 f   modbus-rtu.obj
 0001:00001200       __modbus_rtu_free          10002200 f   modbus-rtu.obj
 0001:00001772       $LN16                      10002772     modbus-tcp.obj
 0001:00001772       $LN12                      10002772     modbus-tcp.obj
 0001:00001ac0       __modbus_tcp_init_win32    10002ac0 f   modbus-tcp.obj
 0001:00001b30       __modbus_set_slave         10002b30 f   modbus-tcp.obj
 0001:00001b80       __modbus_tcp_build_request_basis 10002b80 f   modbus-tcp.obj
 0001:00001c90       __modbus_tcp_build_response_basis 10002c90 f   modbus-tcp.obj
 0001:00001d10       __modbus_tcp_prepare_response_tid 10002d10 f   modbus-tcp.obj
 0001:00001d40       __modbus_tcp_send_msg_pre  10002d40 f   modbus-tcp.obj
 0001:00001d80       __modbus_tcp_send          10002d80 f   modbus-tcp.obj
 0001:00001da0       __modbus_tcp_receive       10002da0 f   modbus-tcp.obj
 0001:00001dc0       __modbus_tcp_recv          10002dc0 f   modbus-tcp.obj
 0001:00001de0       __modbus_tcp_check_integrity 10002de0 f   modbus-tcp.obj
 0001:00001df0       __modbus_tcp_pre_check_confirmation 10002df0 f   modbus-tcp.obj
 0001:00001f40       __modbus_tcp_set_ipv4_options 10002f40 f   modbus-tcp.obj
 0001:00001fa0       __connect                  10002fa0 f   modbus-tcp.obj
 0001:00002140       __modbus_tcp_connect       10003140 f   modbus-tcp.obj
 0001:00002270       __modbus_tcp_pi_connect    10003270 f   modbus-tcp.obj
 0001:00002440       __modbus_tcp_close         10003440 f   modbus-tcp.obj
 0001:00002480       __modbus_tcp_flush         10003480 f   modbus-tcp.obj
 0001:000025e0       __modbus_tcp_select        100035e0 f   modbus-tcp.obj
 0001:000026e0       __modbus_tcp_free          100036e0 f   modbus-tcp.obj
 0001:00002b00       $LN21                      10003b00     modbus.obj
 0001:000050f4       $LN107                     100060f4     modbus.obj
 0001:00005128       $LN104                     10006128     modbus.obj
 0001:00005890       __sleep_response_timeout   10006890 f   modbus.obj
 0001:000058c0       _compute_response_length_from_request 100068c0 f   modbus.obj
 0001:000059ac       $LN15                      100069ac     modbus.obj
 0001:000059c4       $LN13                      100069c4     modbus.obj
 0001:000059e0       _send_msg                  100069e0 f   modbus.obj
 0001:00005b40       _compute_meta_length_after_function 10006b40 f   modbus.obj
 0001:00005be0       $LN20                      10006be0     modbus.obj
 0001:00005bec       $LN19                      10006bec     modbus.obj
 0001:00005c00       _compute_data_length_after_meta 10006c00 f   modbus.obj
 0001:00005cc0       _check_confirmation        10006cc0 f   modbus.obj
 0001:00006088       $LN34                      10007088     modbus.obj
 0001:0000609c       $LN32                      1000709c     modbus.obj
 0001:000060c0       _response_io_status        100070c0 f   modbus.obj
 0001:00006160       _response_exception        10007160 f   modbus.obj
 0001:000061b0       _read_io_status            100071b0 f   modbus.obj
 0001:00006380       _read_registers            10007380 f   modbus.obj
 0001:00006520       _write_single              10007520 f   modbus.obj
 0001:000072f0       _swprintf                  100082f0 f   LIBCMTD:wassert.obj
 0001:00008070       $$000000                   10009070     LIBCMTD:memcpy.obj
 0001:000082c0       LeadUpVec                  100092c0     LIBCMTD:memcpy.obj
 0001:0000833c       UnwindUpVec                1000933c     LIBCMTD:memcpy.obj
 0001:000083a8       TrailUpVec                 100093a8     LIBCMTD:memcpy.obj
 0001:0000844c       LeadDownVec                1000944c     LIBCMTD:memcpy.obj
 0001:000084d8       UnwindDownVec              100094d8     LIBCMTD:memcpy.obj
 0001:00008544       TrailDownVec               10009544     LIBCMTD:memcpy.obj
 0001:000086c0       $$000000                   100096c0     LIBCMTD:memset.obj
 0001:000088a0       ?DebuggerProbe@@YAHK@Z     100098a0 f   LIBCMTD:error.obj
 0001:00008940       ?DebuggerRuntime@@YAHKHPAXPB_W@Z 10009940 f   LIBCMTD:error.obj
 0001:00008cb0       ?_getMemBlockDataString@@YAXPAD00I@Z 10009cb0 f   LIBCMTD:error.obj
 0001:00008d20       ?failwithmessage@@YAXPAXHHPBD@Z 10009d20 f   LIBCMTD:error.obj
 0001:000097d0       ___DllMainCRTStartup       1000a7d0 f   LIBCMTD:dllcrt0.obj
 0001:0000b280       __initterm                 1000c280 f   LIBCMTD:crt0dat.obj
 0001:0000b310       _doexit                    1000c310 f   LIBCMTD:crt0dat.obj
 0001:0000b6a0       @x64tow_s@24               1000c6a0 f   LIBCMTD:xtows.obj
 0001:0000bc10       _xtow_s@20                 1000cc10 f   LIBCMTD:xtows.obj
 0001:0000c1f0       _flsall                    1000d1f0 f   LIBCMTD:fflush.obj
 0001:0000d410       _ctrlevent_capture@4       1000e410 f   LIBCMTD:winsig.obj
 0001:0000d7e0       $LN41                      1000e7e0     LIBCMTD:winsig.obj
 0001:0000d7f8       $LN39                      1000e7f8     LIBCMTD:winsig.obj
 0001:0000d810       _siglookup                 1000e810 f   LIBCMTD:winsig.obj
 0001:0000dbd0       $LN49                      1000ebd0     LIBCMTD:winsig.obj
 0001:0000dbe4       $LN46                      1000ebe4     LIBCMTD:winsig.obj
 0001:0000dbfc       $LN50                      1000ebfc     LIBCMTD:winsig.obj
 0001:0000dc04       $LN47                      1000ec04     LIBCMTD:winsig.obj
 0001:0000efe0       __cftoe2_l                 1000ffe0 f   LIBCMTD:cvt.obj
 0001:0000f640       __cftof2_l                 10010640 f   LIBCMTD:cvt.obj
 0001:00010060       __shift                    10011060 f   LIBCMTD:cvt.obj
 0001:00010530       ?_CrtMemDumpAllObjectsSince_stat@@YAXPBU_CrtMemState@@PAUlocaleinfo_struct@@@Z 10011530 f   LIBCMTD:dbgheap.obj
 0001:00010840       ?__crtIsBadReadPtr@@YAHPBXI@Z 10011840 f   LIBCMTD:dbgheap.obj
 0001:00010970       _CheckBytes                10011970 f   LIBCMTD:dbgheap.obj
 0001:00010e04       $LN51                      10011e04     LIBCMTD:dbgheap.obj
 0001:00012c80       __heap_alloc_dbg_impl      10013c80 f   LIBCMTD:dbgheap.obj
 0001:00013360       __nh_malloc_dbg_impl       10014360 f   LIBCMTD:dbgheap.obj
 0001:000133e0       __printMemBlockData        100143e0 f   LIBCMTD:dbgheap.obj
 0001:00013700       _realloc_help              10014700 f   LIBCMTD:dbgheap.obj
 0001:000161f8       $LN172                     100171f8     LIBCMTD:output.obj
 0001:00016218       $LN173                     10017218     LIBCMTD:output.obj
 0001:00016230       $LN168                     10017230     LIBCMTD:output.obj
 0001:00016244       $LN174                     10017244     LIBCMTD:output.obj
 0001:00016258       $LN169                     10017258     LIBCMTD:output.obj
 0001:00016288       $LN175                     10017288     LIBCMTD:output.obj
 0001:000162c4       $LN170                     100172c4     LIBCMTD:output.obj
 0001:00016360       _write_char                10017360 f   LIBCMTD:output.obj
 0001:00016400       _write_multi_char          10017400 f   LIBCMTD:output.obj
 0001:00016440       _write_string              10017440 f   LIBCMTD:output.obj
 0001:00016b10       _ValidateLocalCookies      10017b10 f   LIBCMTD:chandler4.obj
 0001:00017790       $$000000                   10018790     LIBCMTD:strlen.obj
 0001:00019180       _refresh_std_handles       1001a180 f   LIBCMTD:write.obj
 0001:000191e0       ?GetPdbDll@@YAPAUHINSTANCE__@@XZ 1001a1e0 f   LIBCMTD:pdblkup.obj
 0001:00019320       ?GetPdbDllFromInstallPath@@YAPAUHINSTANCE__@@XZ 1001a320 f   LIBCMTD:pdblkup.obj
 0001:00019540       ?GetPdbDllPathFromFilePath@@YAHPB_WPA_WI@Z 1001a540 f   LIBCMTD:pdblkup.obj
 0001:000198e0       ___IsPackagedAppHelper     1001a8e0 f   LIBCMTD:winapisupp.obj
 0001:0001a3a0       _xcptlookup                1001b3a0 f   LIBCMTD:winxfltr.obj
 0001:0001a5d0       _parse_cmdline             1001b5d0 f   LIBCMTD:stdargv.obj
 0001:0001b040       __onexit_nolock            1001c040 f   LIBCMTD:onexit.obj
 0001:0001b9c0       ?CPtoLocaleName@@YAPB_WH@Z 1001c9c0 f   LIBCMTD:mbctype.obj
 0001:0001ba34       $LN10                      1001ca34     LIBCMTD:mbctype.obj
 0001:0001ba48       $LN9                       1001ca48     LIBCMTD:mbctype.obj
 0001:0001ba60       ?getSystemCP@@YAHH@Z       1001ca60 f   LIBCMTD:mbctype.obj
 0001:0001bb70       ?setSBCS@@YAXPAUthreadmbcinfostruct@@@Z 1001cb70 f   LIBCMTD:mbctype.obj
 0001:0001bc50       ?setSBUpLow@@YAXPAUthreadmbcinfostruct@@@Z 1001cc50 f   LIBCMTD:mbctype.obj
 0001:0001c750       $$000000                   1001d750     LIBCMTD:ulldiv.obj
 0001:0001c7c0       $$000000                   1001d7c0     LIBCMTD:ullrem.obj
 0001:0001e148       $LN161                     1001f148     LIBCMTD:woutput.obj
 0001:0001e168       $LN162                     1001f168     LIBCMTD:woutput.obj
 0001:0001e180       $LN157                     1001f180     LIBCMTD:woutput.obj
 0001:0001e194       $LN163                     1001f194     LIBCMTD:woutput.obj
 0001:0001e1a8       $LN158                     1001f1a8     LIBCMTD:woutput.obj
 0001:0001e1d8       $LN164                     1001f1d8     LIBCMTD:woutput.obj
 0001:0001e214       $LN159                     1001f214     LIBCMTD:woutput.obj
 0001:0001e250       _write_char                1001f250 f   LIBCMTD:woutput.obj
 0001:0001e2b0       _write_multi_char          1001f2b0 f   LIBCMTD:woutput.obj
 0001:0001e2f0       _write_string              1001f2f0 f   LIBCMTD:woutput.obj
 0001:0001fba0       $LN170                     10020ba0     LIBCMTD:woutputs.obj
 0001:0001fbc0       $LN171                     10020bc0     LIBCMTD:woutputs.obj
 0001:0001fbd8       $LN166                     10020bd8     LIBCMTD:woutputs.obj
 0001:0001fbec       $LN172                     10020bec     LIBCMTD:woutputs.obj
 0001:0001fc00       $LN167                     10020c00     LIBCMTD:woutputs.obj
 0001:0001fc30       $LN173                     10020c30     LIBCMTD:woutputs.obj
 0001:0001fc6c       $LN168                     10020c6c     LIBCMTD:woutputs.obj
 0001:0001fcb0       _write_char                10020cb0 f   LIBCMTD:woutputs.obj
 0001:0001fd10       _write_multi_char          10020d10 f   LIBCMTD:woutputs.obj
 0001:0001fd50       _write_string              10020d50 f   LIBCMTD:woutputs.obj
 0001:00023984       $LN399                     10024984     LIBCMTD:woutputp.obj
 0001:000239a4       $LN400                     100249a4     LIBCMTD:woutputp.obj
 0001:000239bc       $LN395                     100249bc     LIBCMTD:woutputp.obj
 0001:000239d0       $LN401                     100249d0     LIBCMTD:woutputp.obj
 0001:000239e4       $LN396                     100249e4     LIBCMTD:woutputp.obj
 0001:00023a14       $LN402                     10024a14     LIBCMTD:woutputp.obj
 0001:00023a50       $LN397                     10024a50     LIBCMTD:woutputp.obj
 0001:00023a88       $LN403                     10024a88     LIBCMTD:woutputp.obj
 0001:00023ab0       _write_char                10024ab0 f   LIBCMTD:woutputp.obj
 0001:00023b10       _write_multi_char          10024b10 f   LIBCMTD:woutputp.obj
 0001:00023b50       _write_string              10024b50 f   LIBCMTD:woutputp.obj
 0001:00025b00       $$000000                   10026b00     LIBCMTD:memmove.obj
 0001:00025d50       LeadUpVec                  10026d50     LIBCMTD:memmove.obj
 0001:00025dcc       UnwindUpVec                10026dcc     LIBCMTD:memmove.obj
 0001:00025e38       TrailUpVec                 10026e38     LIBCMTD:memmove.obj
 0001:00025edc       LeadDownVec                10026edc     LIBCMTD:memmove.obj
 0001:00025f68       UnwindDownVec              10026f68     LIBCMTD:memmove.obj
 0001:00025fd4       TrailDownVec               10026fd4     LIBCMTD:memmove.obj
 0001:00026150       $$000000                   10027150     LIBCMTD:strrchr.obj
 0001:00026b20       $$000000                   10027b20     LIBCMTD:lldiv.obj
 0001:00026bd0       $$000000                   10027bd0     LIBCMTD:llrem.obj
 0001:00026c90       $$000000                   10027c90     LIBCMTD:llshl.obj
 0001:00026cb0       $$000000                   10027cb0     LIBCMTD:ullshr.obj
 0001:000275c0       __is_LFH_enabled           100285c0 f   LIBCMTD:expand.obj
 0001:00029210       $LN181                     1002a210     LIBCMTD:outputs.obj
 0001:00029230       $LN182                     1002a230     LIBCMTD:outputs.obj
 0001:00029248       $LN177                     1002a248     LIBCMTD:outputs.obj
 0001:0002925c       $LN183                     1002a25c     LIBCMTD:outputs.obj
 0001:00029270       $LN178                     1002a270     LIBCMTD:outputs.obj
 0001:000292a0       $LN184                     1002a2a0     LIBCMTD:outputs.obj
 0001:000292dc       $LN179                     1002a2dc     LIBCMTD:outputs.obj
 0001:00029320       _write_char                1002a320 f   LIBCMTD:outputs.obj
 0001:000293c0       _write_multi_char          1002a3c0 f   LIBCMTD:outputs.obj
 0001:00029400       _write_string              1002a400 f   LIBCMTD:outputs.obj
 0001:0002d1b0       $LN425                     1002e1b0     LIBCMTD:outputp.obj
 0001:0002d1d0       $LN426                     1002e1d0     LIBCMTD:outputp.obj
 0001:0002d1e8       $LN421                     1002e1e8     LIBCMTD:outputp.obj
 0001:0002d1fc       $LN427                     1002e1fc     LIBCMTD:outputp.obj
 0001:0002d210       $LN422                     1002e210     LIBCMTD:outputp.obj
 0001:0002d240       $LN428                     1002e240     LIBCMTD:outputp.obj
 0001:0002d27c       $LN423                     1002e27c     LIBCMTD:outputp.obj
 0001:0002d2b4       $LN429                     1002e2b4     LIBCMTD:outputp.obj
 0001:0002d5f0       _write_char                1002e5f0 f   LIBCMTD:outputp.obj
 0001:0002d690       _write_multi_char          1002e690 f   LIBCMTD:outputp.obj
 0001:0002d6d0       _write_string              1002e6d0 f   LIBCMTD:outputp.obj
 0001:0002f000       $$000000                   10030000     LIBCMTD:chkstk.obj
 0001:0002f9b0       $$000000                   100309b0     LIBCMTD:exsup4.obj
 0001:0002fa40       __unwind_handler4          10030a40 f   LIBCMTD:exsup4.obj
 0001:00030ba0       ?x_ismbbtype_l@@YAHPAUlocaleinfo_struct@@IHH@Z 10031ba0 f   LIBCMTD:ismbbyte.obj
 0001:00030f70       ?__crtGetLocaleInfoA_stat@@YAHPAUlocaleinfo_struct@@PB_WKPADH@Z 10031f70 f   LIBCMTD:a_loc.obj
 0001:00031290       ?__crtLCMapStringA_stat@@YAHPAUlocaleinfo_struct@@PB_WKPBDHPADHHH@Z 10032290 f   LIBCMTD:a_map.obj
 0001:00031530       ?strncnt@@YAHPBDH@Z        10032530 f   LIBCMTD:a_map.obj
 0001:000315e0       ?__crtGetStringTypeA_stat@@YAHPAUlocaleinfo_struct@@KPBDHPAGHH@Z 100325e0 f   LIBCMTD:a_str.obj
 0001:00031740       ?CatchGuardHandler@@YA?AW4_EXCEPTION_DISPOSITION@@PAUEHExceptionRecord@@PAUCatchGuardRN@@PAX2@Z 10032740 f   LIBCMTD:_trnsctrl_.obj
 0001:00031790       ?TranslatorGuardHandler@@YA?AW4_EXCEPTION_DISPOSITION@@PAUEHExceptionRecord@@PAUTranslatorGuardRN@@PAX2@Z 10032790 f   LIBCMTD:_trnsctrl_.obj
 0001:000321b0       ?wcstoxl@@YAKPB_WPAPB_WHH@Z 100331b0 f   LIBCMTD:wcstol.obj
 0001:00032d30       _fix_grouping              10033d30 f   LIBCMTD:initmon.obj
 0001:000331b0       _fix_grouping              100341b0 f   LIBCMTD:initnum.obj
 0001:00033c70       __get_lc_time              10034c70 f   LIBCMTD:inittime.obj
 0001:00035138       $LN16                      10036138     LIBCMTD:wsetloca.obj
 0001:00035150       __copytlocinfo_nolock      10036150 f   LIBCMTD:wsetloca.obj
 0001:00035d90       __wsetlocale_get_all       10036d90 f   LIBCMTD:wsetloca.obj
 0001:00036150       __wsetlocale_nolock        10037150 f   LIBCMTD:wsetloca.obj
 0001:000365a0       __wsetlocale_set_cat       100375a0 f   LIBCMTD:wsetloca.obj
 0001:00036b80       _sync_legacy_variables_lk  10037b80 f   LIBCMTD:wsetloca.obj
 0001:000383f4       $LN137                     100393f4     LIBCMTD:strgtold.obj
 0001:00038424       $LN138                     10039424     LIBCMTD:strgtold.obj
 0001:00038434       $LN134                     10039434     LIBCMTD:strgtold.obj
 0001:00038470       $LN139                     10039470     LIBCMTD:strgtold.obj
 0001:0003847c       $LN135                     1003947c     LIBCMTD:strgtold.obj
 0001:000384b8       $LN140                     100394b8     LIBCMTD:strgtold.obj
 0001:000384c4       $LN136                     100394c4     LIBCMTD:strgtold.obj
 0001:00038c20       ___abstract_cw_sse2        10039c20 f   LIBCMTD:ieee87.obj
 0001:00038d70       ___abstract_sw_sse2        10039d70 f   LIBCMTD:ieee87.obj
 0001:00038e00       ___clearfp_sse2            10039e00 f   LIBCMTD:ieee87.obj
 0001:00038ed0       ___control87_sse2          10039ed0 f   LIBCMTD:ieee87.obj
 0001:00038f50       ___fpreset_sse2            10039f50 f   LIBCMTD:ieee87.obj
 0001:00038f70       ___hw_cw_sse2              10039f70 f   LIBCMTD:ieee87.obj
 0001:000390c0       ___statusfp_sse2           1003a0c0 f   LIBCMTD:ieee87.obj
 0001:000390e0       __abstract_cw              1003a0e0 f   LIBCMTD:ieee87.obj
 0001:00039230       __abstract_sw              1003a230 f   LIBCMTD:ieee87.obj
 0001:00039430       __hw_cw                    1003a430 f   LIBCMTD:ieee87.obj
 0001:0003a700       ?strtoxl@@YAKPAUlocaleinfo_struct@@PBDPAPBDHH@Z 1003b700 f   LIBCMTD:strtol.obj
 0001:0003b4b0       @x64toa_s@24               1003c4b0 f   LIBCMTD:xtoas.obj
 0001:0003ba10       _xtoa_s@20                 1003ca10 f   LIBCMTD:xtoas.obj
 0001:0003c5e0       ?wcsncnt@@YAIPB_WI@Z       1003d5e0 f   LIBCMTD:wcstombs.obj
 0001:0003d770       $$000000                   1003e770     LIBCMTD:exsup.obj
 0001:0003d790       __unwind_handler           1003e790 f   LIBCMTD:exsup.obj
 0001:0003d910       $$000000                   1003e910     LIBCMTD:lowhelpr.obj
 0001:0003db30       ?CallCatchBlock@@YAPAXPAUEHExceptionRecord@@PAUEHRegistrationNode@@PAU_CONTEXT@@PBU_s_FuncInfo@@PAXHK@Z 1003eb30 f   LIBCMTD:frame.obj
 0001:0003ddd0       ?CallUnexpected@@YAXPBU_s_ESTypeList@@@Z 1003edd0 f   LIBCMTD:frame.obj
 0001:0003de1a       __catch$?CallUnexpected@@YAXPBU_s_ESTypeList@@@Z$0 1003ee1a f   LIBCMTD:frame.obj
 0001:0003de60       ?CatchIt@@YAXPAUEHExceptionRecord@@PAUEHRegistrationNode@@PAU_CONTEXT@@PAXPBU_s_FuncInfo@@PBU_s_HandlerType@@PBU_s_CatchableType@@PBU_s_TryBlockMapEntry@@H1E@Z 1003ee60 f   LIBCMTD:frame.obj
 0001:0003df20       ?ExFilterRethrow@@YAHPAU_EXCEPTION_POINTERS@@@Z 1003ef20 f   LIBCMTD:frame.obj
 0001:0003df90       ?FindHandler@@YAXPAUEHExceptionRecord@@PAUEHRegistrationNode@@PAU_CONTEXT@@PAXPBU_s_FuncInfo@@EH1@Z 1003ef90 f   LIBCMTD:frame.obj
 0001:0003e460       ?FindHandlerForForeignException@@YAXPAUEHExceptionRecord@@PAUEHRegistrationNode@@PAU_CONTEXT@@PAXPBU_s_FuncInfo@@HH1@Z 1003f460 f   LIBCMTD:frame.obj
 0001:0003e5f0       ?IsInExceptionSpec@@YAEPAUEHExceptionRecord@@PBU_s_ESTypeList@@@Z 1003f5f0 f   LIBCMTD:frame.obj
 0001:0003e6b0       ?Is_bad_exception_allowed@@YAEPBU_s_ESTypeList@@@Z 1003f6b0 f   LIBCMTD:frame.obj
 0001:0003fba0       _cmpBYTE                   10040ba0 f   LIBCMTD:memcmp.obj
 0001:0003fbd0       _cmpDWORD                  10040bd0 f   LIBCMTD:memcmp.obj
 0001:0003fca0       _cmpResult                 10040ca0 f   LIBCMTD:memcmp.obj
 0001:0003fcd0       _cmpWORD                   10040cd0 f   LIBCMTD:memcmp.obj
 0001:0003fef4       $LN22                      10040ef4     LIBCMTD:memcmp.obj
 0001:0003ff10       _unaligned_memcmp          10040f10 f   LIBCMTD:memcmp.obj
 0001:00040594       $LN79                      10041594     LIBCMTD:memcmp.obj
 0001:000407f0       _GetLocaleNameFromDefault  100417f0 f   LIBCMTD:getqloc.obj
 0001:00040890       _GetLocaleNameFromLangCountry 10041890 f   LIBCMTD:getqloc.obj
 0001:00040970       _GetLocaleNameFromLanguage 10041970 f   LIBCMTD:getqloc.obj
 0001:00040a00       _GetPrimaryLen             10041a00 f   LIBCMTD:getqloc.obj
 0001:00040a80       _LangCountryEnumProcEx@12  10041a80 f   LIBCMTD:getqloc.obj
 0001:00040fe0       _LanguageEnumProcEx@12     10041fe0 f   LIBCMTD:getqloc.obj
 0001:00041120       _ProcessCodePage           10042120 f   LIBCMTD:getqloc.obj
 0001:000411d0       _TestDefaultCountry        100421d0 f   LIBCMTD:getqloc.obj
 0001:00041230       _TestDefaultLanguage       10042230 f   LIBCMTD:getqloc.obj
 0001:00041280       _TranslateName             10042280 f   LIBCMTD:getqloc.obj
 0001:00041b20       $$000000                   10042b20     LIBCMTD:strcmp.obj
 0001:00043410       ?wcstoxq@@YA_KPAUlocaleinfo_struct@@PB_WPAPB_WHH@Z 10044410 f   LIBCMTD:wcstoq.obj
 0001:000481ac       $LN57                      100491ac     LIBCMTD:undname.obj
 0001:000481d8       $LN53                      100491d8     LIBCMTD:undname.obj
 0001:000481f8       $LN58                      100491f8     LIBCMTD:undname.obj
 0001:0004822c       $LN54                      1004922c     LIBCMTD:undname.obj
 0001:00048288       $LN59                      10049288     LIBCMTD:undname.obj
 0001:00048298       $LN55                      10049298     LIBCMTD:undname.obj
 0001:000482b8       $LN60                      100492b8     LIBCMTD:undname.obj
 0001:000482c0       $LN56                      100492c0     LIBCMTD:undname.obj
 0001:00048430       $LN18                      10049430     LIBCMTD:undname.obj
 0001:00048450       $LN17                      10049450     LIBCMTD:undname.obj
 0001:000494c0       $LN16                      1004a4c0     LIBCMTD:undname.obj
 0001:000494e0       $LN15                      1004a4e0     LIBCMTD:undname.obj
 0001:00049674       $LN17                      1004a674     LIBCMTD:undname.obj
 0001:00049694       $LN18                      1004a694     LIBCMTD:undname.obj
 0001:0004969c       $LN16                      1004a69c     LIBCMTD:undname.obj
 0001:0004aa00       $LN62                      1004ba00     LIBCMTD:undname.obj
 0001:0004aa1c       $LN59                      1004ba1c     LIBCMTD:undname.obj
 0001:0004aa7c       $LN63                      1004ba7c     LIBCMTD:undname.obj
 0001:0004aab0       $LN60                      1004bab0     LIBCMTD:undname.obj
 0001:0004ab10       $LN64                      1004bb10     LIBCMTD:undname.obj
 0001:0004ab24       $LN65                      1004bb24     LIBCMTD:undname.obj
 0001:0004ab2c       $LN61                      1004bb2c     LIBCMTD:undname.obj
 0001:0004ae68       $LN28                      1004be68     LIBCMTD:undname.obj
 0001:0004ae7c       $LN26                      1004be7c     LIBCMTD:undname.obj
 0001:0004aec0       $LN29                      1004bec0     LIBCMTD:undname.obj
 0001:0004aee4       $LN27                      1004bee4     LIBCMTD:undname.obj
 0001:0004b854       $LN40                      1004c854     LIBCMTD:undname.obj
 0001:0004b86c       $LN39                      1004c86c     LIBCMTD:undname.obj
 0001:0004c524       $LN34                      1004d524     LIBCMTD:undname.obj
 0001:0004c548       $LN33                      1004d548     LIBCMTD:undname.obj
 0001:0004c59c       $LN35                      1004d59c     LIBCMTD:undname.obj
 0001:0004d184       $LN118                     1004e184     LIBCMTD:undname.obj
 0001:0004d1a0       $LN119                     1004e1a0     LIBCMTD:undname.obj
 0001:0004d1c8       $LN116                     1004e1c8     LIBCMTD:undname.obj
 0001:0004d21c       $LN120                     1004e21c     LIBCMTD:undname.obj
 0001:0004d230       $LN117                     1004e230     LIBCMTD:undname.obj
 0001:0004d284       $LN121                     1004e284     LIBCMTD:undname.obj
 0001:0004dcc0       ?und_memcpy@@YAXPADPBDI@Z  1004ecc0 f   LIBCMTD:undname.obj
 0001:0004dd00       ?und_strlen@@YAIPBD@Z      1004ed00 f   LIBCMTD:undname.obj
 0001:0004dd40       ?und_strncmp@@YAIPBD0I@Z   1004ed40 f   LIBCMTD:undname.obj
 0001:0004df50       $$000000                   1004ef50     LIBCMTD:llmul.obj
 0001:0004e120       ?strtoxq@@YA_KPAUlocaleinfo_struct@@PBDPAPBDHH@Z 1004f120 f   LIBCMTD:strtoq.obj
 0001:0004e920       __unwindfunclet$?getSystemCP@@YAHH@Z$0 1004f920 f   LIBCMTD:mbctype.obj
 0001:0004e928       __ehhandler$?getSystemCP@@YAHH@Z 1004f928 f   LIBCMTD:mbctype.obj
 0001:0004e950       __unwindfunclet$?x_ismbbtype_l@@YAHPAUlocaleinfo_struct@@IHH@Z$0 1004f950 f   LIBCMTD:ismbbyte.obj
 0001:0004e958       __ehhandler$?x_ismbbtype_l@@YAHPAUlocaleinfo_struct@@IHH@Z 1004f958 f   LIBCMTD:ismbbyte.obj
 0001:0004e980       __unwindfunclet$?strtoxl@@YAKPAUlocaleinfo_struct@@PBDPAPBDHH@Z$0 1004f980 f   LIBCMTD:strtol.obj
 0001:0004e988       __ehhandler$?strtoxl@@YAKPAUlocaleinfo_struct@@PBDPAPBDHH@Z 1004f988 f   LIBCMTD:strtol.obj
 0001:0004e9b0       __ehhandler$?CallUnexpected@@YAXPBU_s_ESTypeList@@@Z 1004f9b0 f   LIBCMTD:frame.obj
 0001:0004e9d0       __unwindfunclet$?wcstoxq@@YA_KPAUlocaleinfo_struct@@PB_WPAPB_WHH@Z$0 1004f9d0 f   LIBCMTD:wcstoq.obj
 0001:0004e9d8       __ehhandler$?wcstoxq@@YA_KPAUlocaleinfo_struct@@PB_WPAPB_WHH@Z 1004f9d8 f   LIBCMTD:wcstoq.obj
 0001:0004ea00       __unwindfunclet$?make@DNameStatusNode@@SAPAV1@W4DNameStatus@@@Z$0 1004fa00 f   LIBCMTD:undname.obj
 0001:0004ea0e       __ehhandler$?make@DNameStatusNode@@SAPAV1@W4DNameStatus@@@Z 1004fa0e f   LIBCMTD:undname.obj
 0001:0004ea30       __unwindfunclet$?strtoxq@@YA_KPAUlocaleinfo_struct@@PBDPAPBDHH@Z$0 1004fa30 f   LIBCMTD:strtoq.obj
 0001:0004ea38       __ehhandler$?strtoxq@@YA_KPAUlocaleinfo_struct@@PBDPAPBDHH@Z 1004fa38 f   LIBCMTD:strtoq.obj
 0002:000001dc       _pinit                     100501dc     LIBCMTD:_file.obj
 0002:000001e0       _pinit                     100501e0     LIBCMTD:cpu_disp.obj
 0002:000001e4       _pinit                     100501e4     LIBCMTD:onexit.obj
 0002:000001e8       _pinit                     100501e8     LIBCMTD:mbctype.obj
 0002:000001f4       _pterm                     100501f4     LIBCMTD:wsetloca.obj
 0002:000001f8       _pterm                     100501f8     LIBCMTD:initcon.obj
 0002:000001fc       _pterm                     100501fc     LIBCMTD:_file.obj
 0002:00000248       _table_crc_hi              10050248     modbus-rtu.obj
 0002:00000348       _table_crc_lo              10050348     modbus-rtu.obj
 0002:00001808       __RTC_ErrorMessages        10051808     LIBCMTD:error.obj
 0002:00001820       __RTC_NoFalsePositives     10051820     LIBCMTD:error.obj
 0002:00001838       _stack_premsg              10051838     LIBCMTD:error.obj
 0002:00001854       _stack_postmsg             10051854     LIBCMTD:error.obj
 0002:00001868       _uninit_premsg             10051868     LIBCMTD:error.obj
 0002:00001878       _uninit_postmsg            10051878     LIBCMTD:error.obj
 0002:00001de0       _GS_ExceptionPointers      10051de0     LIBCMTD:gs_report.obj
 0002:00002ce8       _rterrs                    10052ce8     LIBCMTD:crt0msg.obj
 0002:000039f0       __RTC_errlist              100539f0     LIBCMTD:userapi.obj
 0002:00003f9c       _szBlockUseName            10053f9c     LIBCMTD:dbgheap.obj
 0002:000052f4       __CrtDbgModeMsg            100552f4     LIBCMTD:dbgrptw.obj
 0002:0000635c       _mspdbName                 1005635c     LIBCMTD:pdblkup.obj
 0002:00006378       _msvcrdFilename            10056378     LIBCMTD:pdblkup.obj
 0002:00006468       ?dllExt@?1??GetPdbDllPathFromFilePath@@YAHPB_WPA_WI@Z@4QB_WB 10056468     LIBCMTD:pdblkup.obj
 0002:00006470       ?mspdbFilename@?1??GetPdbDllPathFromFilePath@@YAHPB_WPA_WI@Z@4QB_WB 10056470     LIBCMTD:pdblkup.obj
 0002:00006b1c       __mb_locale_names          10056b1c     LIBCMTD:mbctype.obj
 0002:00007640       __CrtDbgModeMsg            10057640     LIBCMTD:dbgrpt.obj
 0002:00009cf8       __first_127char            10059cf8     LIBCMTD:wsetloca.obj
 0002:0000d448       ?ExceptionTemplate@?1??_CxxThrowException@@9@8@4UEHExceptionRecord@@B 1005d448     LIBCMTD:throw.obj
 0002:0000d850       _tokenTable                1005d850     LIBCMTD:undname.obj
 0002:0000d884       _rttiTable                 1005d884     LIBCMTD:undname.obj
 0002:0000d898       _nameTable                 1005d898     LIBCMTD:undname.obj
 0002:0000e824       __RTC_InitBase.rtc$IMZ     1005e824     modbus-data.obj
 0002:0000e828       __RTC_InitBase.rtc$IMZ     1005e828     modbus-rtu.obj
 0002:0000e82c       __RTC_InitBase.rtc$IMZ     1005e82c     modbus-tcp.obj
 0002:0000e830       __RTC_InitBase.rtc$IMZ     1005e830     modbus.obj
 0002:0000e83c       __RTC_Shutdown.rtc$TMZ     1005e83c     modbus-data.obj
 0002:0000e840       __RTC_Shutdown.rtc$TMZ     1005e840     modbus-rtu.obj
 0002:0000e844       __RTC_Shutdown.rtc$TMZ     1005e844     modbus-tcp.obj
 0002:0000e848       __RTC_Shutdown.rtc$TMZ     1005e848     modbus.obj
 0002:0000e850       __sehtable$_fprintf        1005e850     LIBCMTD:fprintf.obj
 0002:0000e870       __sehtable$_printf         1005e870     LIBCMTD:printf.obj
 0002:0000e890       __sehtable$_perror         1005e890     LIBCMTD:perror.obj
 0002:0000e8b0       __sehtable$?DebuggerProbe@@YAHK@Z 1005e8b0     LIBCMTD:error.obj
 0002:0000e8d0       __sehtable$?DebuggerRuntime@@YAHKHPAXPB_W@Z 1005e8d0     LIBCMTD:error.obj
 0002:0000e8f0       __sehtable$__CRT_INIT@12   1005e8f0     LIBCMTD:dllcrt0.obj
 0002:0000e910       __sehtable$___DllMainCRTStartup 1005e910     LIBCMTD:dllcrt0.obj
 0002:0000e930       __sehtable$_doexit         1005e930     LIBCMTD:crt0dat.obj
 0002:0000e950       __sehtable$_fflush         1005e950     LIBCMTD:fflush.obj
 0002:0000e970       __sehtable$_flsall         1005e970     LIBCMTD:fflush.obj
 0002:0000e998       __sehtable$_setvbuf        1005e998     LIBCMTD:setvbuf.obj
 0002:0000e9b8       __sehtable$_fwprintf       1005e9b8     LIBCMTD:fwprintf.obj
 0002:0000e9d8       __sehtable$_signal         1005e9d8     LIBCMTD:winsig.obj
 0002:0000e9f8       __sehtable$_raise          1005e9f8     LIBCMTD:winsig.obj
 0002:0000ea18       __sehtable$_ctrlevent_capture@4 1005ea18     LIBCMTD:winsig.obj
 0002:0000ea38       __sehtable$__fcloseall     1005ea38     LIBCMTD:closeall.obj
 0002:0000ea58       __sehtable$__mtinitlocknum 1005ea58     LIBCMTD:mlock.obj
 0002:0000ea78       __sehtable$__realloc_dbg   1005ea78     LIBCMTD:dbgheap.obj
 0002:0000ea98       __sehtable$__expand_dbg    1005ea98     LIBCMTD:dbgheap.obj
 0002:0000eab8       __sehtable$__free_dbg      1005eab8     LIBCMTD:dbgheap.obj
 0002:0000ead8       __sehtable$__msize_dbg     1005ead8     LIBCMTD:dbgheap.obj
 0002:0000eaf8       __sehtable$__CrtCheckMemory 1005eaf8     LIBCMTD:dbgheap.obj
 0002:0000eb18       __sehtable$__CrtSetDbgFlag 1005eb18     LIBCMTD:dbgheap.obj
 0002:0000eb38       __sehtable$__CrtDoForAllClientObjects 1005eb38     LIBCMTD:dbgheap.obj
 0002:0000eb58       __sehtable$__CrtIsMemoryBlock 1005eb58     LIBCMTD:dbgheap.obj
 0002:0000eb78       __sehtable$__CrtMemCheckpoint 1005eb78     LIBCMTD:dbgheap.obj
 0002:0000eb98       __sehtable$__CrtSetDbgBlockType 1005eb98     LIBCMTD:dbgheap.obj
 0002:0000ebb8       __sehtable$__heap_alloc_dbg_impl 1005ebb8     LIBCMTD:dbgheap.obj
 0002:0000ebd8       __sehtable$?__crtIsBadReadPtr@@YAHPBXI@Z 1005ebd8     LIBCMTD:dbgheap.obj
 0002:0000ebf8       __sehtable$?_CrtMemDumpAllObjectsSince_stat@@YAXPBU_CrtMemState@@PAUlocaleinfo_struct@@@Z 1005ebf8     LIBCMTD:dbgheap.obj
 0002:0000ec18       __sehtable$_vfprintf_helper 1005ec18     LIBCMTD:vfprintf.obj
 0002:0000ec38       __sehtable$__CrtSetReportHookW2 1005ec38     LIBCMTD:dbgrptw.obj
 0002:0000ec58       __sehtable$__ioinitCallback@12 1005ec58     LIBCMTD:ioinit.obj
 0002:0000ec78       __sehtable$_vprintf_helper 1005ec78     LIBCMTD:vprintf.obj
 0002:0000ec98       __sehtable$__freefls@4     1005ec98     LIBCMTD:tidtable.obj
 0002:0000ecc0       __sehtable$__initptd       1005ecc0     LIBCMTD:tidtable.obj
 0002:0000ece8       __sehtable$__alloc_osfhnd  1005ece8     LIBCMTD:osfinfo.obj
 0002:0000ed10       __sehtable$___lock_fhandle 1005ed10     LIBCMTD:osfinfo.obj
 0002:0000ed30       __sehtable$__open_osfhandle 1005ed30     LIBCMTD:osfinfo.obj
 0002:0000ed50       __sehtable$__write         1005ed50     LIBCMTD:write.obj
 0002:0000ed70       __sehtable$__IsNonwritableInCurrentImage 1005ed70     LIBCMTD:pesect.obj
 0002:0000ed90       __sehtable$__onexit        1005ed90     LIBCMTD:onexit.obj
 0002:0000edb0       __sehtable$?terminate@@YAXXZ 1005edb0     LIBCMTD:hooks.obj
 0002:0000edd0       __sehtable$?_inconsistency@@YAXXZ 1005edd0     LIBCMTD:hooks.obj
 0002:0000edf0       __sehtable$___updatetmbcinfo 1005edf0     LIBCMTD:mbctype.obj
 0002:0000ee10       __sehtable$__setmbcp       1005ee10     LIBCMTD:mbctype.obj
 0002:0000ee2c       __unwindtable$?getSystemCP@@YAHH@Z 1005ee2c     LIBCMTD:mbctype.obj
 0002:0000ee34       __ehfuncinfo$?getSystemCP@@YAHH@Z 1005ee34     LIBCMTD:mbctype.obj
 0002:0000ee58       __sehtable$__commit        1005ee58     LIBCMTD:commit.obj
 0002:0000ee78       __sehtable$_vfwprintf_helper 1005ee78     LIBCMTD:vfwprint.obj
 0002:0000ee98       __sehtable$__CrtSetReportHook2 1005ee98     LIBCMTD:dbgrpt.obj
 0002:0000eeb8       __sehtable$___updatetlocinfo 1005eeb8     LIBCMTD:localref.obj
 0002:0000eed8       __sehtable$_fclose         1005eed8     LIBCMTD:fclose.obj
 0002:0000eef8       __sehtable$__VCrtDbgReportA 1005eef8     LIBCMTD:dbgrptt.obj
 0002:0000ef20       __sehtable$__VCrtDbgReportW 1005ef20     LIBCMTD:dbgrptt.obj
 0002:0000ef48       __sehtable$__lseeki64      1005ef48     LIBCMTD:lseeki64.obj
 0002:0000ef68       __sehtable$__putwch        1005ef68     LIBCMTD:putwch.obj
 0002:0000ef84       __unwindtable$?x_ismbbtype_l@@YAHPAUlocaleinfo_struct@@IHH@Z 1005ef84     LIBCMTD:ismbbyte.obj
 0002:0000ef8c       __ehfuncinfo$?x_ismbbtype_l@@YAHPAUlocaleinfo_struct@@IHH@Z 1005ef8c     LIBCMTD:ismbbyte.obj
 0002:0000efb0       __sehtable$_fputwc         1005efb0     LIBCMTD:fputwc.obj
 0002:0000efd0       __sehtable$__get_current_locale 1005efd0     LIBCMTD:wsetloca.obj
 0002:0000eff8       __sehtable$__free_locale   1005eff8     LIBCMTD:wsetloca.obj
 0002:0000f020       __sehtable$__wsetlocale    1005f020     LIBCMTD:wsetloca.obj
 0002:0000f058       __sehtable$__locterm       1005f058     LIBCMTD:wsetloca.obj
 0002:0000f078       __sehtable$__close         1005f078     LIBCMTD:close.obj
 0002:0000f094       __unwindtable$?strtoxl@@YAKPAUlocaleinfo_struct@@PBDPAPBDHH@Z 1005f094     LIBCMTD:strtol.obj
 0002:0000f09c       __ehfuncinfo$?strtoxl@@YAKPAUlocaleinfo_struct@@PBDPAPBDHH@Z 1005f09c     LIBCMTD:strtol.obj
 0002:0000f0c0       __sehtable$___FrameUnwindToState 1005f0c0     LIBCMTD:frame.obj
 0002:0000f0e8       __sehtable$?CallCatchBlock@@YAPAXPAUEHExceptionRecord@@PAUEHRegistrationNode@@PAU_CONTEXT@@PBU_s_FuncInfo@@PAXHK@Z 1005f0e8     LIBCMTD:frame.obj
 0002:0000f110       __sehtable$___BuildCatchObject 1005f110     LIBCMTD:frame.obj
 0002:0000f130       __sehtable$___DestructExceptionObject 1005f130     LIBCMTD:frame.obj
 0002:0000f14c       __catchsym$?CallUnexpected@@YAXPBU_s_ESTypeList@@@Z$2 1005f14c     LIBCMTD:frame.obj
 0002:0000f15c       __unwindtable$?CallUnexpected@@YAXPBU_s_ESTypeList@@@Z 1005f15c     LIBCMTD:frame.obj
 0002:0000f16c       __tryblocktable$?CallUnexpected@@YAXPBU_s_ESTypeList@@@Z 1005f16c     LIBCMTD:frame.obj
 0002:0000f180       __ehfuncinfo$?CallUnexpected@@YAXPBU_s_ESTypeList@@@Z 1005f180     LIBCMTD:frame.obj
 0002:0000f1a8       __sehtable$___BuildCatchObjectHelper 1005f1a8     LIBCMTD:frame.obj
 0002:0000f218       __sehtable$___set_fpsr_sse2 1005f218     LIBCMTD:fpctrl.obj
 0002:0000f238       __sehtable$??3@YAXPAX@Z    1005f238     LIBCMTD:dbgdel.obj
 0002:0000f258       __sehtable$?_Name_base@type_info@@CAPBDPBV1@PAU__type_info_node@@@Z 1005f258     LIBCMTD:typname.obj
 0002:0000f278       __sehtable$?_Type_info_dtor@type_info@@CAXPAV1@@Z 1005f278     LIBCMTD:typname.obj
 0002:0000f298       __sehtable$?_Name_base_internal@type_info@@CAPBDPBV1@PAU__type_info_node@@@Z 1005f298     LIBCMTD:typname.obj
 0002:0000f2b8       __sehtable$?_Type_info_dtor_internal@type_info@@CAXPAV1@@Z 1005f2b8     LIBCMTD:typname.obj
 0002:0000f2d8       __sehtable$___clean_type_info_names_internal 1005f2d8     LIBCMTD:typname.obj
 0002:0000f2f4       __unwindtable$?wcstoxq@@YA_KPAUlocaleinfo_struct@@PB_WPAPB_WHH@Z 1005f2f4     LIBCMTD:wcstoq.obj
 0002:0000f2fc       __ehfuncinfo$?wcstoxq@@YA_KPAUlocaleinfo_struct@@PB_WPAPB_WHH@Z 1005f2fc     LIBCMTD:wcstoq.obj
 0002:0000f320       __sehtable$___unDName      1005f320     LIBCMTD:undname.obj
 0002:0000f340       __sehtable$___unDNameEx    1005f340     LIBCMTD:undname.obj
 0002:0000f35c       __unwindtable$?make@DNameStatusNode@@SAPAV1@W4DNameStatus@@@Z 1005f35c     LIBCMTD:undname.obj
 0002:0000f364       __ehfuncinfo$?make@DNameStatusNode@@SAPAV1@W4DNameStatus@@@Z 1005f364     LIBCMTD:undname.obj
 0002:0000f388       __unwindtable$?strtoxq@@YA_KPAUlocaleinfo_struct@@PBDPAPBDHH@Z 1005f388     LIBCMTD:strtoq.obj
 0002:0000f390       __ehfuncinfo$?strtoxq@@YA_KPAUlocaleinfo_struct@@PBDPAPBDHH@Z 1005f390     LIBCMTD:strtoq.obj
 0002:0000f5de       .idata$6                   1005f5de     ws2_32:WS2_32.dll
 0002:0000f686       .idata$6                   1005f686     kernel32:KERNEL32.dll
 0002:0000fcb0       .edata                     1005fcb0     modbus.exp
 0002:0000fcd8       rgpv                       1005fcd8     modbus.exp
 0002:0000fda4       rgszName                   1005fda4     modbus.exp
 0002:0000fe70       rgwOrd                     1005fe70     modbus.exp
 0002:0000fed6       szName                     1005fed6     modbus.exp
 0002:0000fee1       $N00001                    1005fee1     modbus.exp
 0002:0000feee       $N00002                    1005feee     modbus.exp
 0002:0000fefd       $N00003                    1005fefd     modbus.exp
 0002:0000ff0a       $N00004                    1005ff0a     modbus.exp
 0002:0000ff16       $N00005                    1005ff16     modbus.exp
 0002:0000ff30       $N00006                    1005ff30     modbus.exp
 0002:0000ff48       $N00007                    1005ff48     modbus.exp
 0002:0000ff59       $N00008                    1005ff59     modbus.exp
 0002:0000ff6f       $N00009                    1005ff6f     modbus.exp
 0002:0000ff88       $N00010                    1005ff88     modbus.exp
 0002:0000ffa4       $N00011                    1005ffa4     modbus.exp
 0002:0000ffb6       $N00012                    1005ffb6     modbus.exp
 0002:0000ffca       $N00013                    1005ffca     modbus.exp
 0002:0000ffdd       $N00014                    1005ffdd     modbus.exp
 0002:0000fff8       $N00015                    1005fff8     modbus.exp
 0002:00010007       $N00016                    10060007     modbus.exp
 0002:00010016       $N00017                    10060016     modbus.exp
 0002:00010028       $N00018                    10060028     modbus.exp
 0002:00010039       $N00019                    10060039     modbus.exp
 0002:00010050       $N00020                    10060050     modbus.exp
 0002:0001006c       $N00021                    1006006c     modbus.exp
 0002:00010082       $N00022                    10060082     modbus.exp
 0002:00010091       $N00023                    10060091     modbus.exp
 0002:000100ad       $N00024                    100600ad     modbus.exp
 0002:000100ba       $N00025                    100600ba     modbus.exp
 0002:000100d1       $N00026                    100600d1     modbus.exp
 0002:000100e8       $N00027                    100600e8     modbus.exp
 0002:000100fb       $N00028                    100600fb     modbus.exp
 0002:00010116       $N00029                    10060116     modbus.exp
 0002:00010129       $N00030                    10060129     modbus.exp
 0002:00010144       $N00031                    10060144     modbus.exp
 0002:0001015c       $N00032                    1006015c     modbus.exp
 0002:00010176       $N00033                    10060176     modbus.exp
 0002:00010191       $N00034                    10060191     modbus.exp
 0002:000101a9       $N00035                    100601a9     modbus.exp
 0002:000101ba       $N00036                    100601ba     modbus.exp
 0002:000101d4       $N00037                    100601d4     modbus.exp
 0002:000101e5       $N00038                    100601e5     modbus.exp
 0002:000101fb       $N00039                    100601fb     modbus.exp
 0002:00010217       $N00040                    10060217     modbus.exp
 0002:00010228       $N00041                    10060228     modbus.exp
 0002:0001023a       $N00042                    1006023a     modbus.exp
 0002:0001024a       $N00043                    1006024a     modbus.exp
 0002:0001025c       $N00044                    1006025c     modbus.exp
 0002:0001026e       $N00045                    1006026e     modbus.exp
 0002:00010283       $N00046                    10060283     modbus.exp
 0002:00010298       $N00047                    10060298     modbus.exp
 0002:000102b8       $N00048                    100602b8     modbus.exp
 0002:000102c9       $N00049                    100602c9     modbus.exp
 0002:000102db       $N00050                    100602db     modbus.exp
 0002:000102f1       $N00051                    100602f1     modbus.exp
 0003:00000000       $SG85450                   10061000     modbus-data.obj
 0003:00000024       $SG85451                   10061024     modbus-data.obj
 0003:0000003c       $SG87484                   1006103c     modbus-rtu.obj
 0003:0000005c       $SG87485                   1006105c     modbus-rtu.obj
 0003:00000080       $SG87579                   10061080     modbus-rtu.obj
 0003:00000098       $SG87605                   10061098     modbus-rtu.obj
 0003:000000d0       $SG87620                   100610d0     modbus-rtu.obj
 0003:000000f8       $SG87624                   100610f8     modbus-rtu.obj
 0003:00000128       $SG87633                   10061128     modbus-rtu.obj
 0003:00000150       $SG87641                   10061150     modbus-rtu.obj
 0003:00000180       $SG87646                   10061180     modbus-rtu.obj
 0003:000001b4       $SG87673                   100611b4     modbus-rtu.obj
 0003:000001e8       $SG87691                   100611e8     modbus-rtu.obj
 0003:00000220       $SG87703                   10061220     modbus-rtu.obj
 0003:00000250       $SG87711                   10061250     modbus-rtu.obj
 0003:00000280       $SG87722                   10061280     modbus-rtu.obj
 0003:000002b0       $SG87730                   100612b0     modbus-rtu.obj
 0003:000002e0       $SG87739                   100612e0     modbus-rtu.obj
 0003:00000318       $SG87742                   10061318     modbus-rtu.obj
 0003:0000034c       $SG87789                   1006134c     modbus-rtu.obj
 0003:00000368       $SG87058                   10061368     modbus-tcp.obj
 0003:0000038c       $SG87068                   1006138c     modbus-tcp.obj
 0003:000003a4       $SG87151                   100613a4     modbus-tcp.obj
 0003:000003a8       $SG87159                   100613a8     modbus-tcp.obj
 0003:000003cc       $SG87167                   100613cc     modbus-tcp.obj
 0003:000003d4       $SG87173                   100613d4     modbus-tcp.obj
 0003:000003e0       $SG87176                   100613e0     modbus-tcp.obj
 0003:000003e8       $SG87179                   100613e8     modbus-tcp.obj
 0003:000003f0       $SG87193                   100613f0     modbus-tcp.obj
 0003:0000041c       $SG87206                   1006141c     modbus-tcp.obj
 0003:00000440       $SG87225                   10061440     modbus-tcp.obj
 0003:00000464       $SG87269                   10061464     modbus-tcp.obj
 0003:0000047c       $SG87272                   1006147c     modbus-tcp.obj
 0003:000004a0       $SG87294                   100614a0     modbus-tcp.obj
 0003:000004bc       $SG87297                   100614bc     modbus-tcp.obj
 0003:000004e0       $SG87304                   100614e0     modbus-tcp.obj
 0003:00000500       $SG87307                   10061500     modbus-tcp.obj
 0003:00000528       $SG86879                   10061528     modbus-tcp.obj
 0003:00000550       $SG86969                   10061550     modbus-tcp.obj
 0003:00000584       $SG86972                   10061584     modbus-tcp.obj
 0003:000005b4       $SG87039                   100615b4     modbus-tcp.obj
 0003:000005d0       $SG88068                   100615d0     modbus.obj
 0003:00000600       $SG88082                   10061600     modbus.obj
 0003:00000634       $SG88139                   10061634     modbus.obj
 0003:0000065c       $SG88171                   1006165c     modbus.obj
 0003:00000694       $SG88218                   10061694     modbus.obj
 0003:000006c4       $SG88221                   100616c4     modbus.obj
 0003:000006f4       $SG87450                   100616f4     modbus.obj
 0003:00000708       $SG87452                   10061708     modbus.obj
 0003:00000720       $SG87454                   10061720     modbus.obj
 0003:00000734       $SG87456                   10061734     modbus.obj
 0003:00000754       $SG87458                   10061754     modbus.obj
 0003:00000760       $SG87460                   10061760     modbus.obj
 0003:00000780       $SG87462                   10061780     modbus.obj
 0003:00000798       $SG87464                   10061798     modbus.obj
 0003:000007ac       $SG87466                   100617ac     modbus.obj
 0003:000007c8       $SG87468                   100617c8     modbus.obj
 0003:000007e8       $SG87470                   100617e8     modbus.obj
 0003:000007f4       $SG87472                   100617f4     modbus.obj
 0003:00000804       $SG87474                   10061804     modbus.obj
 0003:0000081c       $SG87476                   1006181c     modbus.obj
 0003:0000082c       $SG87478                   1006182c     modbus.obj
 0003:00000850       $SG87486                   10061850     modbus.obj
 0003:0000085c       $SG87489                   1006185c     modbus.obj
 0003:00000864       $SG87491                   10061864     modbus.obj
 0003:00000868       $SG87503                   10061868     modbus.obj
 0003:0000087c       $SG87537                   1006187c     modbus.obj
 0003:00000884       $SG87538                   10061884     modbus.obj
 0003:00000888       $SG87628                   10061888     modbus.obj
 0003:000008a8       $SG87630                   100618a8     modbus.obj
 0003:000008c8       $SG87655                   100618c8     modbus.obj
 0003:000008d0       $SG87663                   100618d0     modbus.obj
 0003:000008d8       $SG87672                   100618d8     modbus.obj
 0003:000008e0       $SG87683                   100618e0     modbus.obj
 0003:000008f0       $SG87688                   100618f0     modbus.obj
 0003:000008f4       $SG87814                   100618f4     modbus.obj
 0003:00000924       $SG87836                   10061924     modbus.obj
 0003:00000960       $SG87735                   10061960     modbus.obj
 0003:000009a4       $SG87749                   100619a4     modbus.obj
 0003:000009dc       $SG87818                   100619dc     modbus.obj
 0003:00000a04       $SG87840                   10061a04     modbus.obj
 0003:00000a30       $SG87753                   10061a30     modbus.obj
 0003:00000a74       $SG87825                   10061a74     modbus.obj
 0003:00000aac       $SG87829                   10061aac     modbus.obj
 0003:00000adc       $SG87851                   10061adc     modbus.obj
 0003:00000b1c       $SG87855                   10061b1c     modbus.obj
 0003:00000b50       $SG87864                   10061b50     modbus.obj
 0003:00000b78       $SG87871                   10061b78     modbus.obj
 0003:00000bb4       $SG87875                   10061bb4     modbus.obj
 0003:00000be0       $SG87883                   10061be0     modbus.obj
 0003:00000c14       $SG87887                   10061c14     modbus.obj
 0003:00000c3c       $SG87894                   10061c3c     modbus.obj
 0003:00000c78       $SG87898                   10061c78     modbus.obj
 0003:00000ca8       $SG87908                   10061ca8     modbus.obj
 0003:00000cb4       $SG87911                   10061cb4     modbus.obj
 0003:00000ccc       $SG87915                   10061ccc     modbus.obj
 0003:00000cf8       $SG87928                   10061cf8     modbus.obj
 0003:00000d44       $SG88007                   10061d44     modbus.obj
 0003:00000d70       $SG87933                   10061d70     modbus.obj
 0003:00000dc0       $SG88024                   10061dc0     modbus.obj
 0003:00000df4       $SG88045                   10061df4     modbus.obj
 0003:00000e28       __assertstring             10061e28     LIBCMTD:wassert.obj
 0003:00000e78       _dotdotdot                 10061e78     LIBCMTD:wassert.obj
 0003:00000e7c       _newline                   10061e7c     LIBCMTD:wassert.obj
 0003:00000e80       _dblnewline                10061e80     LIBCMTD:wassert.obj
 0003:00001110       _errtable                  10062110     LIBCMTD:dosmap.obj
 0003:00001278       _ErrnoNoMem                10062278     LIBCMTD:dosmap.obj
 0003:0000127c       _DoserrorNoMem             1006227c     LIBCMTD:dosmap.obj
 0003:000012c8       __locktable                100622c8     LIBCMTD:mlock.obj
 0003:000013e8       __lRequestCurr             100623e8     LIBCMTD:dbgheap.obj
 0003:000013ec       __bNoMansLandFill          100623ec     LIBCMTD:dbgheap.obj
 0003:000013ed       __bAlignLandFill           100623ed     LIBCMTD:dbgheap.obj
 0003:000013ee       __bDeadLandFill            100623ee     LIBCMTD:dbgheap.obj
 0003:000013ef       __bCleanLandFill           100623ef     LIBCMTD:dbgheap.obj
 0003:000013fc       _dotdotdot                 100623fc     LIBCMTD:dbgrptw.obj
 0003:00001464       ?isPackaged@?1??__crtIsPackagedApp@@9@9 10062464     LIBCMTD:winapisupp.obj
 0003:00001468       ___rgctypeflag             10062468     LIBCMTD:mbctype.obj
 0003:00001470       ___rgcode_page_info        10062470     LIBCMTD:mbctype.obj
 0003:00001990       _dotdotdot                 10062990     LIBCMTD:dbgrpt.obj
 0003:00001c5c       __ctype_loc_style          10062c5c     LIBCMTD:wsetloca.obj
 0003:00001c60       _DoubleFormat              10062c60     LIBCMTD:intrncvt.obj
 0003:00001c78       _FloatFormat               10062c78     LIBCMTD:intrncvt.obj
 0003:00001fbc       _over                      10062fbc     LIBCMTD:fpctrl.obj
 0003:00001fc8       _under                     10062fc8     LIBCMTD:fpctrl.obj
 0003:00001fd4       ?__DAZ_ENABLED@?1??__set_fpsr_sse2@@9@9 10062fd4     LIBCMTD:fpctrl.obj
 0003:00002100       ?init@?1??_RTC_InitBase@@9@4_NA 10063100     LIBCMTD:init.obj
 0003:0000210c       ___enable_percent_n        1006310c     LIBCMTD:printf.obj
 0003:00002118       _GS_ExceptionRecord        10063118     LIBCMTD:gs_report.obj
 0003:00002168       _GS_ContextRecord          10063168     LIBCMTD:gs_report.obj
 0003:00002434       _DebuggerWasPresent        10063434     LIBCMTD:gs_report.obj
 0003:00002438       ___proc_attached           10063438     LIBCMTD:dllcrt0.obj
 0003:0000244c       ?fExit@?1??doexit@@9@9     1006344c     LIBCMTD:crt0dat.obj
 0003:00002484       _ctrlc_action              10063484     LIBCMTD:winsig.obj
 0003:00002488       _ctrlbreak_action          10063488     LIBCMTD:winsig.obj
 0003:0000248c       _abort_action              1006348c     LIBCMTD:winsig.obj
 0003:00002490       _term_action               10063490     LIBCMTD:winsig.obj
 0003:00002494       _ConsoleCtrlHandler_Installed 10063494     LIBCMTD:winsig.obj
 0003:00002498       ?pfnMessageBox@?1??__crtMessageBoxW@@9@9 10063498     LIBCMTD:crtmboxw.obj
 0003:0000249c       ?pfnGetActiveWindow@?1??__crtMessageBoxW@@9@9 1006349c     LIBCMTD:crtmboxw.obj
 0003:000024a0       ?pfnGetLastActivePopup@?1??__crtMessageBoxW@@9@9 100634a0     LIBCMTD:crtmboxw.obj
 0003:000024a4       ?pfnGetProcessWindowStation@?1??__crtMessageBoxW@@9@9 100634a4     LIBCMTD:crtmboxw.obj
 0003:000024a8       ?pfnGetUserObjectInformation@?1??__crtMessageBoxW@@9@9 100634a8     LIBCMTD:crtmboxw.obj
 0003:000024b8       ?outmsg@?L@??_NMSG_WRITE@@9@9 100634b8     LIBCMTD:crt0msg.obj
 0003:00002ae0       __RTC_ErrorReportFunc      10063ae0     LIBCMTD:userapi.obj
 0003:00002ae4       __RTC_ErrorReportFuncW     10063ae4     LIBCMTD:userapi.obj
 0003:00002ae8       _lclcritsects              10063ae8     LIBCMTD:mlock.obj
 0003:00002c50       _check_frequency           10063c50     LIBCMTD:dbgheap.obj
 0003:00002c5c       _check_counter             10063c5c     LIBCMTD:dbgheap.obj
 0003:00002c60       __lTotalAlloc              10063c60     LIBCMTD:dbgheap.obj
 0003:00002c64       __lCurAlloc                10063c64     LIBCMTD:dbgheap.obj
 0003:00002c68       __lMaxAlloc                10063c68     LIBCMTD:dbgheap.obj
 0003:00002c6c       __pFirstBlock              10063c6c     LIBCMTD:dbgheap.obj
 0003:00002c70       __pLastBlock               10063c70     LIBCMTD:dbgheap.obj
 0003:00002c8c       _mspdb                     10063c8c     LIBCMTD:pdblkup.obj
 0003:00002c90       ?alreadyTried@?1??GetPdbDll@@YAPAUHINSTANCE__@@XZ@4_NA 10063c90     LIBCMTD:pdblkup.obj
 0003:00002c91       ?PDBOK@?BM@??_RTC_GetSrcLine@@YAHPAEPA_WKPAH1K@Z@4_NA 10063c91     LIBCMTD:pdblkup.obj
 0003:00002c98       ?_pgmname@?1??_setargv@@9@9 10063c98     LIBCMTD:stdargv.obj
 0003:00002dac       _g_pfnRtlGenRandom         10063dac     LIBCMTD:rand_s.obj
 0003:00002dc8       _fSystemSet                10063dc8     LIBCMTD:mbctype.obj
 0003:00002ddc       ___type_info_root_node     10063ddc     LIBCMTD:typname.obj
 0003:00002e0c       _heap                      10063e0c     LIBCMTD:undname.obj
 0003:00002e20       ?buf@?1??dbGetString@DName@@QBEPADXZ@4PADA 10063e20     LIBCMTD:undname.obj
 0004:000000a0       $R000000                   100660a0     modbus.res
 0004:00000310       $R000270                   10066310     modbus.res
